(lp0
(lp1
S'Date'
p2
aS'Open'
p3
aS'High'
p4
aS'Low'
p5
aS'Close'
p6
aS'Volume'
p7
aS'Adj Clos'
p8
aa(lp9
S'2012-12-31'
p10
aS'700.00'
p11
aS'710.57'
p12
aS'696.00'
p13
aS'707.38'
p14
aS'1997400'
p15
aS'707.3'
p16
aa(lp17
S'2012-12-28'
p18
aS'701.69'
p19
aS'706.91'
p20
aS'700.01'
p21
aS'700.01'
p22
aS'1402000'
p23
aS'700.0'
p24
aa(lp25
S'2012-12-27'
p26
aS'707.14'
p27
aS'708.84'
p28
aS'698.61'
p29
aS'706.29'
p30
aS'1647400'
p31
aS'706.2'
p32
aa(lp33
S'2012-12-26'
p34
aS'708.07'
p35
aS'712.88'
p36
aS'702.41'
p37
aS'708.87'
p38
aS'1182400'
p39
aS'708.8'
p40
aa(lp41
S'2012-12-24'
p42
aS'714.51'
p43
aS'715.18'
p44
aS'707.47'
p45
aS'709.50'
p46
aS'840900'
p47
aS'709.5'
p48
aa(lp49
S'2012-12-21'
p50
aS'713.97'
p51
aS'718.82'
p52
aS'710.52'
p53
aS'715.63'
p54
aS'3526000'
p55
aS'715.6'
p56
aa(lp57
S'2012-12-20'
p58
aS'723.26'
p59
aS'724.65'
p60
aS'716.97'
p61
aS'722.36'
p62
aS'1657000'
p63
aS'722.3'
p64
aa(lp65
S'2012-12-19'
p66
aS'720.71'
p67
aS'723.00'
p68
aS'716.68'
p69
aS'720.11'
p70
aS'1918600'
p71
aS'720.1'
p72
aa(lp73
S'2012-12-18'
p74
aS'716.60'
p75
aS'729.10'
p76
aS'715.05'
p77
aS'721.07'
p78
aS'3004900'
p79
aS'721.0'
p80
aa(lp81
S'2012-12-17'
p82
aS'705.50'
p83
aS'721.92'
p84
aS'704.02'
p85
aS'720.78'
p86
aS'3035400'
p87
aS'720.7'
p88
aa(lp89
S'2012-12-14'
p90
aS'699.17'
p91
aS'707.82'
p92
aS'698.43'
p93
aS'701.96'
p94
aS'2130100'
p95
aS'701.9'
p96
aa(lp97
S'2012-12-13'
p98
aS'715.92'
p99
aS'716.47'
p100
aS'699.55'
p101
aS'702.70'
p102
aS'3444900'
p103
aS'702.7'
p104
aa(lp105
S'2012-12-12'
p106
aS'699.23'
p107
aS'703.51'
p108
aS'693.48'
p109
aS'697.56'
p110
aS'2426000'
p111
aS'697.5'
p112
aa(lp113
S'2012-12-11'
p114
aS'690.00'
p115
aS'701.92'
p116
aS'687.72'
p117
aS'696.88'
p118
aS'2687600'
p119
aS'696.8'
p120
aa(lp121
S'2012-12-10'
p122
aS'685.39'
p123
aS'691.65'
p124
aS'683.79'
p125
aS'685.42'
p126
aS'1366700'
p127
aS'685.4'
p128
aa(lp129
S'2012-12-07'
p130
aS'695.00'
p131
aS'696.88'
p132
aS'682.42'
p133
aS'684.21'
p134
aS'1919300'
p135
aS'684.2'
p136
aa(lp137
S'2012-12-06'
p138
aS'687.59'
p139
aS'695.61'
p140
aS'684.51'
p141
aS'691.13'
p142
aS'1462300'
p143
aS'691.1'
p144
aa(lp145
S'2012-12-05'
p146
aS'692.15'
p147
aS'694.50'
p148
aS'682.33'
p149
aS'687.82'
p150
aS'1862400'
p151
aS'687.8'
p152
aa(lp153
S'2012-12-04'
p154
aS'695.00'
p155
aS'695.51'
p156
aS'685.70'
p157
aS'691.03'
p158
aS'1991700'
p159
aS'691.0'
p160
aa(lp161
S'2012-12-03'
p162
aS'702.24'
p163
aS'705.89'
p164
aS'694.11'
p165
aS'695.25'
p166
aS'2192500'
p167
aS'695.2'
p168
aa(lp169
S'2012-11-30'
p170
aS'691.31'
p171
aS'699.22'
p172
aS'685.69'
p173
aS'698.37'
p174
aS'3163600'
p175
aS'698.3'
p176
aa(lp177
S'2012-11-29'
p178
aS'687.78'
p179
aS'693.90'
p180
aS'682.00'
p181
aS'691.89'
p182
aS'2776500'
p183
aS'691.8'
p184
aa(lp185
S'2012-11-28'
p186
aS'668.01'
p187
aS'684.91'
p188
aS'663.89'
p189
aS'683.67'
p190
aS'3042000'
p191
aS'683.6'
p192
aa(lp193
S'2012-11-27'
p194
aS'660.17'
p195
aS'675.00'
p196
aS'658.00'
p197
aS'670.71'
p198
aS'2508700'
p199
aS'670.7'
p200
aa(lp201
S'2012-11-26'
p202
aS'666.44'
p203
aS'667.00'
p204
aS'659.02'
p205
aS'661.15'
p206
aS'2204600'
p207
aS'661.1'
p208
aa(lp209
S'2012-11-23'
p210
aS'669.97'
p211
aS'670.00'
p212
aS'666.10'
p213
aS'667.97'
p214
aS'922500'
p215
aS'667.9'
p216
aa(lp217
S'2012-11-21'
p218
aS'668.99'
p219
aS'669.80'
p220
aS'660.40'
p221
aS'665.87'
p222
aS'2112200'
p223
aS'665.8'
p224
aa(lp225
S'2012-11-20'
p226
aS'669.51'
p227
aS'678.00'
p228
aS'664.57'
p229
aS'669.97'
p230
aS'2088700'
p231
aS'669.9'
p232
aa(lp233
S'2012-11-19'
p234
aS'655.70'
p235
aS'668.92'
p236
aS'655.53'
p237
aS'668.21'
p238
aS'2368200'
p239
aS'668.2'
p240
aa(lp241
S'2012-11-16'
p242
aS'645.99'
p243
aS'653.02'
p244
aS'636.00'
p245
aS'647.18'
p246
aS'3438200'
p247
aS'647.1'
p248
aa(lp249
S'2012-11-15'
p250
aS'650.00'
p251
aS'660.00'
p252
aS'643.90'
p253
aS'647.26'
p254
aS'1848900'
p255
aS'647.2'
p256
aa(lp257
S'2012-11-14'
p258
aS'660.66'
p259
aS'662.18'
p260
aS'650.50'
p261
aS'652.55'
p262
aS'1668400'
p263
aS'652.5'
p264
aa(lp265
S'2012-11-13'
p266
aS'663.00'
p267
aS'667.60'
p268
aS'658.23'
p269
aS'659.05'
p270
aS'1594200'
p271
aS'659.0'
p272
aa(lp273
S'2012-11-12'
p274
aS'663.75'
p275
aS'669.80'
p276
aS'660.87'
p277
aS'665.90'
p278
aS'1405900'
p279
aS'665.9'
p280
aa(lp281
S'2012-11-09'
p282
aS'654.65'
p283
aS'668.34'
p284
aS'650.30'
p285
aS'663.03'
p286
aS'3114100'
p287
aS'663.0'
p288
aa(lp289
S'2012-11-08'
p290
aS'670.20'
p291
aS'671.49'
p292
aS'651.23'
p293
aS'652.29'
p294
aS'2597000'
p295
aS'652.2'
p296
aa(lp297
S'2012-11-07'
p298
aS'675.00'
p299
aS'678.23'
p300
aS'666.49'
p301
aS'667.12'
p302
aS'2232300'
p303
aS'667.1'
p304
aa(lp305
S'2012-11-06'
p306
aS'685.48'
p307
aS'686.50'
p308
aS'677.55'
p309
aS'681.72'
p310
aS'1582800'
p311
aS'681.7'
p312
aa(lp313
S'2012-11-05'
p314
aS'684.50'
p315
aS'686.86'
p316
aS'675.56'
p317
aS'682.96'
p318
aS'1635900'
p319
aS'682.9'
p320
aa(lp321
S'2012-11-02'
p322
aS'694.79'
p323
aS'695.55'
p324
aS'687.37'
p325
aS'687.92'
p326
aS'2324400'
p327
aS'687.9'
p328
aa(lp329
S'2012-11-01'
p330
aS'679.50'
p331
aS'690.90'
p332
aS'678.72'
p333
aS'687.59'
p334
aS'2050100'
p335
aS'687.5'
p336
aa(lp337
S'2012-10-31'
p338
aS'679.86'
p339
aS'681.00'
p340
aS'675.00'
p341
aS'680.30'
p342
aS'1537000'
p343
aS'680.3'
p344
aa(lp345
S'2012-10-26'
p346
aS'676.50'
p347
aS'683.03'
p348
aS'671.20'
p349
aS'675.15'
p350
aS'1950800'
p351
aS'675.1'
p352
aa(lp353
S'2012-10-25'
p354
aS'680.00'
p355
aS'682.00'
p356
aS'673.51'
p357
aS'677.76'
p358
aS'2401100'
p359
aS'677.7'
p360
aa(lp361
S'2012-10-24'
p362
aS'686.80'
p363
aS'687.00'
p364
aS'675.27'
p365
aS'677.30'
p366
aS'2496500'
p367
aS'677.3'
p368
aa(lp369
S'2012-10-23'
p370
aS'672.01'
p371
aS'687.33'
p372
aS'672.00'
p373
aS'680.35'
p374
aS'2916600'
p375
aS'680.3'
p376
aa(lp377
S'2012-10-22'
p378
aS'681.01'
p379
aS'684.63'
p380
aS'669.70'
p381
aS'678.67'
p382
aS'4055600'
p383
aS'678.6'
p384
aa(lp385
S'2012-10-19'
p386
aS'705.58'
p387
aS'706.70'
p388
aS'672.00'
p389
aS'681.79'
p390
aS'11482200'
p391
aS'681.7'
p392
aa(lp393
S'2012-10-18'
p394
aS'755.54'
p395
aS'759.42'
p396
aS'676.00'
p397
aS'695.00'
p398
aS'12442400'
p399
aS'695.0'
p400
aa(lp401
S'2012-10-17'
p402
aS'743.95'
p403
aS'756.34'
p404
aS'740.26'
p405
aS'755.49'
p406
aS'2292900'
p407
aS'755.4'
p408
aa(lp409
S'2012-10-16'
p410
aS'740.13'
p411
aS'746.99'
p412
aS'736.46'
p413
aS'744.70'
p414
aS'2058200'
p415
aS'744.7'
p416
aa(lp417
S'2012-10-15'
p418
aS'741.94'
p419
aS'743.83'
p420
aS'730.70'
p421
aS'740.98'
p422
aS'3019100'
p423
aS'740.9'
p424
aa(lp425
S'2012-10-12'
p426
aS'751.85'
p427
aS'754.87'
p428
aS'744.10'
p429
aS'744.75'
p430
aS'2404200'
p431
aS'744.7'
p432
aa(lp433
S'2012-10-11'
p434
aS'752.90'
p435
aS'758.50'
p436
aS'750.29'
p437
aS'751.48'
p438
aS'2383900'
p439
aS'751.4'
p440
aa(lp441
S'2012-10-10'
p442
aS'741.86'
p443
aS'747.53'
p444
aS'738.29'
p445
aS'744.56'
p446
aS'2039900'
p447
aS'744.5'
p448
aa(lp449
S'2012-10-09'
p450
aS'759.67'
p451
aS'761.32'
p452
aS'742.53'
p453
aS'744.09'
p454
aS'3003200'
p455
aS'744.0'
p456
aa(lp457
S'2012-10-08'
p458
aS'761.00'
p459
aS'763.58'
p460
aS'754.15'
p461
aS'757.84'
p462
aS'1958600'
p463
aS'757.8'
p464
aa(lp465
S'2012-10-05'
p466
aS'770.71'
p467
aS'774.38'
p468
aS'765.01'
p469
aS'767.65'
p470
aS'2735900'
p471
aS'767.6'
p472
aa(lp473
S'2012-10-04'
p474
aS'762.75'
p475
aS'769.89'
p476
aS'759.40'
p477
aS'768.05'
p478
aS'2454200'
p479
aS'768.0'
p480
aa(lp481
S'2012-10-03'
p482
aS'755.72'
p483
aS'763.92'
p484
aS'752.20'
p485
aS'762.50'
p486
aS'2208300'
p487
aS'762.5'
p488
aa(lp489
S'2012-10-02'
p490
aS'765.20'
p491
aS'765.99'
p492
aS'750.27'
p493
aS'756.99'
p494
aS'2790200'
p495
aS'756.9'
p496
aa(lp497
S'2012-10-01'
p498
aS'759.05'
p499
aS'765.00'
p500
aS'756.21'
p501
aS'761.78'
p502
aS'3168000'
p503
aS'761.7'
p504
aa(lp505
S'2012-09-28'
p506
aS'754.15'
p507
aS'759.30'
p508
aS'751.15'
p509
aS'754.50'
p510
aS'2783500'
p511
aS'754.5'
p512
aa(lp513
S'2012-09-27'
p514
aS'759.95'
p515
aS'762.84'
p516
aS'751.65'
p517
aS'756.50'
p518
aS'3931100'
p519
aS'756.5'
p520
aa(lp521
S'2012-09-26'
p522
aS'749.85'
p523
aS'761.24'
p524
aS'741.00'
p525
aS'753.46'
p526
aS'5672900'
p527
aS'753.4'
p528
aa(lp529
S'2012-09-25'
p530
aS'753.05'
p531
aS'764.89'
p532
aS'747.66'
p533
aS'749.16'
p534
aS'6058500'
p535
aS'749.1'
p536
aa(lp537
S'2012-09-24'
p538
aS'731.00'
p539
aS'750.04'
p540
aS'730.25'
p541
aS'749.38'
p542
aS'3563800'
p543
aS'749.3'
p544
aa(lp545
S'2012-09-21'
p546
aS'732.21'
p547
aS'734.92'
p548
aS'730.12'
p549
aS'733.99'
p550
aS'6359100'
p551
aS'733.9'
p552
aa(lp553
S'2012-09-20'
p554
aS'724.47'
p555
aS'731.38'
p556
aS'721.22'
p557
aS'728.12'
p558
aS'2907400'
p559
aS'728.1'
p560
aa(lp561
S'2012-09-19'
p562
aS'717.50'
p563
aS'728.56'
p564
aS'716.41'
p565
aS'727.50'
p566
aS'3098300'
p567
aS'727.5'
p568
aa(lp569
S'2012-09-18'
p570
aS'707.78'
p571
aS'718.66'
p572
aS'706.78'
p573
aS'718.28'
p574
aS'2066800'
p575
aS'718.2'
p576
aa(lp577
S'2012-09-17'
p578
aS'708.11'
p579
aS'712.88'
p580
aS'705.00'
p581
aS'709.98'
p582
aS'1508300'
p583
aS'709.9'
p584
aa(lp585
S'2012-09-14'
p586
aS'709.60'
p587
aS'713.00'
p588
aS'707.01'
p589
aS'709.68'
p590
aS'2618500'
p591
aS'709.6'
p592
aa(lp593
S'2012-09-13'
p594
aS'693.09'
p595
aS'709.00'
p596
aS'690.54'
p597
aS'706.04'
p598
aS'2659000'
p599
aS'706.0'
p600
aa(lp601
S'2012-09-12'
p602
aS'689.41'
p603
aS'694.91'
p604
aS'680.88'
p605
aS'690.88'
p606
aS'2642300'
p607
aS'690.8'
p608
aa(lp609
S'2012-09-11'
p610
aS'697.96'
p611
aS'700.65'
p612
aS'691.00'
p613
aS'692.19'
p614
aS'1873800'
p615
aS'692.1'
p616
aa(lp617
S'2012-09-10'
p618
aS'709.76'
p619
aS'712.81'
p620
aS'698.39'
p621
aS'700.77'
p622
aS'2560000'
p623
aS'700.7'
p624
aa(lp625
S'2012-09-07'
p626
aS'700.00'
p627
aS'712.25'
p628
aS'697.67'
p629
aS'706.15'
p630
aS'3233000'
p631
aS'706.1'
p632
aa(lp633
S'2012-09-06'
p634
aS'685.96'
p635
aS'699.89'
p636
aS'684.73'
p637
aS'699.40'
p638
aS'3043500'
p639
aS'699.4'
p640
aa(lp641
S'2012-09-05'
p642
aS'680.00'
p643
aS'686.50'
p644
aS'679.14'
p645
aS'680.72'
p646
aS'1708200'
p647
aS'680.7'
p648
aa(lp649
S'2012-09-04'
p650
aS'684.55'
p651
aS'685.00'
p652
aS'673.50'
p653
aS'681.04'
p654
aS'1889600'
p655
aS'681.0'
p656
aa(lp657
S'2012-08-31'
p658
aS'684.00'
p659
aS'688.58'
p660
aS'680.04'
p661
aS'685.09'
p662
aS'2127100'
p663
aS'685.0'
p664
aa(lp665
S'2012-08-30'
p666
aS'684.24'
p667
aS'687.39'
p668
aS'680.18'
p669
aS'681.68'
p670
aS'1626900'
p671
aS'681.6'
p672
aa(lp673
S'2012-08-29'
p674
aS'677.37'
p675
aS'688.99'
p676
aS'676.15'
p677
aS'688.01'
p678
aS'2990300'
p679
aS'688.0'
p680
aa(lp681
S'2012-08-28'
p682
aS'665.00'
p683
aS'677.62'
p684
aS'664.74'
p685
aS'677.25'
p686
aS'2058600'
p687
aS'677.2'
p688
aa(lp689
S'2012-08-27'
p690
aS'662.99'
p691
aS'672.00'
p692
aS'659.24'
p693
aS'669.22'
p694
aS'2613700'
p695
aS'669.2'
p696
aa(lp697
S'2012-08-24'
p698
aS'675.60'
p699
aS'680.45'
p700
aS'674.08'
p701
aS'678.63'
p702
aS'1426600'
p703
aS'678.6'
p704
aa(lp705
S'2012-08-23'
p706
aS'674.27'
p707
aS'680.48'
p708
aS'671.00'
p709
aS'676.80'
p710
aS'1784200'
p711
aS'676.8'
p712
aa(lp713
S'2012-08-22'
p714
aS'667.38'
p715
aS'680.60'
p716
aS'666.70'
p717
aS'677.18'
p718
aS'1909200'
p719
aS'677.1'
p720
aa(lp721
S'2012-08-21'
p722
aS'673.11'
p723
aS'678.00'
p724
aS'662.17'
p725
aS'669.51'
p726
aS'2222200'
p727
aS'669.5'
p728
aa(lp729
S'2012-08-20'
p730
aS'675.50'
p731
aS'678.87'
p732
aS'672.66'
p733
aS'675.54'
p734
aS'1758100'
p735
aS'675.5'
p736
aa(lp737
S'2012-08-17'
p738
aS'674.12'
p739
aS'677.25'
p740
aS'671.70'
p741
aS'677.14'
p742
aS'2177700'
p743
aS'677.1'
p744
aa(lp745
S'2012-08-16'
p746
aS'667.51'
p747
aS'674.64'
p748
aS'667.08'
p749
aS'672.87'
p750
aS'1717700'
p751
aS'672.8'
p752
aa(lp753
S'2012-08-15'
p754
aS'670.28'
p755
aS'674.25'
p756
aS'664.10'
p757
aS'667.54'
p758
aS'2410700'
p759
aS'667.5'
p760
aa(lp761
S'2012-08-14'
p762
aS'659.25'
p763
aS'672.85'
p764
aS'659.00'
p765
aS'668.66'
p766
aS'3661700'
p767
aS'668.6'
p768
aa(lp769
S'2012-08-13'
p770
aS'647.42'
p771
aS'660.15'
p772
aS'646.68'
p773
aS'660.01'
p774
aS'3267900'
p775
aS'660.0'
p776
aa(lp777
S'2012-08-10'
p778
aS'638.59'
p779
aS'642.24'
p780
aS'636.13'
p781
aS'642.00'
p782
aS'1434600'
p783
aS'642.0'
p784
aa(lp785
S'2012-08-09'
p786
aS'644.51'
p787
aS'646.37'
p788
aS'641.52'
p789
aS'642.35'
p790
aS'1070300'
p791
aS'642.3'
p792
aa(lp793
S'2012-08-08'
p794
aS'639.05'
p795
aS'645.87'
p796
aS'638.50'
p797
aS'642.23'
p798
aS'1322200'
p799
aS'642.2'
p800
aa(lp801
S'2012-08-07'
p802
aS'641.79'
p803
aS'644.26'
p804
aS'636.47'
p805
aS'640.54'
p806
aS'1981800'
p807
aS'640.5'
p808
aa(lp809
S'2012-08-06'
p810
aS'639.61'
p811
aS'649.38'
p812
aS'639.22'
p813
aS'642.82'
p814
aS'1782400'
p815
aS'642.8'
p816
aa(lp817
S'2012-08-03'
p818
aS'640.00'
p819
aS'643.72'
p820
aS'636.14'
p821
aS'641.33'
p822
aS'1897100'
p823
aS'641.3'
p824
aa(lp825
S'2012-08-02'
p826
aS'625.51'
p827
aS'638.03'
p828
aS'623.41'
p829
aS'628.75'
p830
aS'1977700'
p831
aS'628.7'
p832
aa(lp833
S'2012-08-01'
p834
aS'637.30'
p835
aS'639.51'
p836
aS'631.38'
p837
aS'632.68'
p838
aS'1844600'
p839
aS'632.6'
p840
aa(lp841
S'2012-07-31'
p842
aS'628.26'
p843
aS'636.50'
p844
aS'628.22'
p845
aS'632.97'
p846
aS'1865600'
p847
aS'632.9'
p848
aa(lp849
S'2012-07-30'
p850
aS'636.05'
p851
aS'642.60'
p852
aS'629.50'
p853
aS'632.30'
p854
aS'2186700'
p855
aS'632.3'
p856
aa(lp857
S'2012-07-27'
p858
aS'618.89'
p859
aS'635.00'
p860
aS'617.50'
p861
aS'634.96'
p862
aS'3549700'
p863
aS'634.9'
p864
aa(lp865
S'2012-07-26'
p866
aS'615.00'
p867
aS'616.87'
p868
aS'610.03'
p869
aS'613.36'
p870
aS'1685200'
p871
aS'613.3'
p872
aa(lp873
S'2012-07-25'
p874
aS'608.32'
p875
aS'613.38'
p876
aS'605.37'
p877
aS'607.99'
p878
aS'1823000'
p879
aS'607.9'
p880
aa(lp881
S'2012-07-24'
p882
aS'615.00'
p883
aS'617.93'
p884
aS'604.34'
p885
aS'607.57'
p886
aS'2009400'
p887
aS'607.5'
p888
aa(lp889
S'2012-07-23'
p890
aS'600.48'
p891
aS'618.35'
p892
aS'598.25'
p893
aS'615.51'
p894
aS'3561700'
p895
aS'615.5'
p896
aa(lp897
S'2012-07-20'
p898
aS'608.76'
p899
aS'612.94'
p900
aS'598.18'
p901
aS'610.82'
p902
aS'6463700'
p903
aS'610.8'
p904
aa(lp905
S'2012-07-19'
p906
aS'586.14'
p907
aS'598.48'
p908
aS'586.00'
p909
aS'593.06'
p910
aS'4674700'
p911
aS'593.0'
p912
aa(lp913
S'2012-07-18'
p914
aS'576.98'
p915
aS'583.69'
p916
aS'576.13'
p917
aS'580.76'
p918
aS'1548200'
p919
aS'580.7'
p920
aa(lp921
S'2012-07-17'
p922
aS'578.43'
p923
aS'580.67'
p924
aS'568.40'
p925
aS'576.73'
p926
aS'1680100'
p927
aS'576.7'
p928
aa(lp929
S'2012-07-16'
p930
aS'576.37'
p931
aS'579.19'
p932
aS'571.78'
p933
aS'574.92'
p934
aS'1462600'
p935
aS'574.9'
p936
aa(lp937
S'2012-07-13'
p938
aS'572.15'
p939
aS'579.15'
p940
aS'568.55'
p941
aS'576.52'
p942
aS'1976000'
p943
aS'576.5'
p944
aa(lp945
S'2012-07-12'
p946
aS'567.12'
p947
aS'571.93'
p948
aS'562.09'
p949
aS'570.48'
p950
aS'2309800'
p951
aS'570.4'
p952
aa(lp953
S'2012-07-11'
p954
aS'576.30'
p955
aS'577.85'
p956
aS'564.94'
p957
aS'571.19'
p958
aS'3499300'
p959
aS'571.1'
p960
aa(lp961
S'2012-07-10'
p962
aS'590.19'
p963
aS'592.43'
p964
aS'578.74'
p965
aS'581.70'
p966
aS'1923100'
p967
aS'581.7'
p968
aa(lp969
S'2012-07-09'
p970
aS'584.95'
p971
aS'588.60'
p972
aS'581.25'
p973
aS'586.01'
p974
aS'1715100'
p975
aS'586.0'
p976
aa(lp977
S'2012-07-06'
p978
aS'592.45'
p979
aS'593.52'
p980
aS'582.82'
p981
aS'585.98'
p982
aS'2161800'
p983
aS'585.9'
p984
aa(lp985
S'2012-07-05'
p986
aS'588.76'
p987
aS'600.06'
p988
aS'588.54'
p989
aS'595.92'
p990
aS'2345900'
p991
aS'595.9'
p992
aa(lp993
S'2012-07-03'
p994
aS'580.01'
p995
aS'588.41'
p996
aS'578.00'
p997
aS'587.83'
p998
aS'1189500'
p999
aS'587.8'
p1000
aa(lp1001
S'2012-07-02'
p1002
aS'581.82'
p1003
aS'583.00'
p1004
aS'576.50'
p1005
aS'580.47'
p1006
aS'1655500'
p1007
aS'580.4'
p1008
aa(lp1009
S'2012-06-29'
p1010
aS'574.96'
p1011
aS'580.13'
p1012
aS'572.20'
p1013
aS'580.07'
p1014
aS'2519500'
p1015
aS'580.0'
p1016
aa(lp1017
S'2012-06-28'
p1018
aS'565.90'
p1019
aS'566.23'
p1020
aS'557.21'
p1021
aS'564.31'
p1022
aS'1920900'
p1023
aS'564.3'
p1024
aa(lp1025
S'2012-06-27'
p1026
aS'567.70'
p1027
aS'573.99'
p1028
aS'566.02'
p1029
aS'569.30'
p1030
aS'1692300'
p1031
aS'569.3'
p1032
aa(lp1033
S'2012-06-26'
p1034
aS'562.76'
p1035
aS'566.60'
p1036
aS'559.48'
p1037
aS'564.68'
p1038
aS'1350200'
p1039
aS'564.6'
p1040
aa(lp1041
S'2012-06-25'
p1042
aS'567.33'
p1043
aS'568.09'
p1044
aS'557.35'
p1045
aS'560.70'
p1046
aS'1581600'
p1047
aS'560.7'
p1048
aa(lp1049
S'2012-06-22'
p1050
aS'568.00'
p1051
aS'571.48'
p1052
aS'565.82'
p1053
aS'571.48'
p1054
aS'2227900'
p1055
aS'571.4'
p1056
aa(lp1057
S'2012-06-21'
p1058
aS'579.84'
p1059
aS'579.84'
p1060
aS'563.73'
p1061
aS'565.21'
p1062
aS'2011300'
p1063
aS'565.2'
p1064
aa(lp1065
S'2012-06-20'
p1066
aS'579.81'
p1067
aS'580.00'
p1068
aS'573.51'
p1069
aS'577.51'
p1070
aS'2346700'
p1071
aS'577.5'
p1072
aa(lp1073
S'2012-06-19'
p1074
aS'573.59'
p1075
aS'584.28'
p1076
aS'573.12'
p1077
aS'581.53'
p1078
aS'2076200'
p1079
aS'581.5'
p1080
aa(lp1081
S'2012-06-18'
p1082
aS'562.62'
p1083
aS'574.21'
p1084
aS'559.25'
p1085
aS'570.85'
p1086
aS'2496900'
p1087
aS'570.8'
p1088
aa(lp1089
S'2012-06-15'
p1090
aS'560.34'
p1091
aS'564.52'
p1092
aS'557.09'
p1093
aS'564.51'
p1094
aS'3001200'
p1095
aS'564.5'
p1096
aa(lp1097
S'2012-06-14'
p1098
aS'561.30'
p1099
aS'565.07'
p1100
aS'556.52'
p1101
aS'559.05'
p1102
aS'2344900'
p1103
aS'559.0'
p1104
aa(lp1105
S'2012-06-13'
p1106
aS'561.72'
p1107
aS'567.00'
p1108
aS'558.68'
p1109
aS'561.09'
p1110
aS'1954200'
p1111
aS'561.0'
p1112
aa(lp1113
S'2012-06-12'
p1114
aS'569.77'
p1115
aS'570.30'
p1116
aS'558.58'
p1117
aS'565.10'
p1118
aS'3224200'
p1119
aS'565.1'
p1120
aa(lp1121
S'2012-06-11'
p1122
aS'584.21'
p1123
aS'585.32'
p1124
aS'566.69'
p1125
aS'568.50'
p1126
aS'2661100'
p1127
aS'568.5'
p1128
aa(lp1129
S'2012-06-08'
p1130
aS'575.85'
p1131
aS'581.00'
p1132
aS'574.58'
p1133
aS'580.45'
p1134
aS'1410400'
p1135
aS'580.4'
p1136
aa(lp1137
S'2012-06-07'
p1138
aS'587.60'
p1139
aS'587.89'
p1140
aS'577.25'
p1141
aS'578.23'
p1142
aS'1758500'
p1143
aS'578.2'
p1144
aa(lp1145
S'2012-06-06'
p1146
aS'576.48'
p1147
aS'581.97'
p1148
aS'573.61'
p1149
aS'580.57'
p1150
aS'2095800'
p1151
aS'580.5'
p1152
aa(lp1153
S'2012-06-05'
p1154
aS'575.45'
p1155
aS'578.13'
p1156
aS'566.47'
p1157
aS'570.41'
p1158
aS'2339900'
p1159
aS'570.4'
p1160
aa(lp1161
S'2012-06-04'
p1162
aS'570.22'
p1163
aS'580.49'
p1164
aS'570.01'
p1165
aS'578.59'
p1166
aS'2432700'
p1167
aS'578.5'
p1168
aa(lp1169
S'2012-06-01'
p1170
aS'571.79'
p1171
aS'572.65'
p1172
aS'568.35'
p1173
aS'570.98'
p1174
aS'3057900'
p1175
aS'570.9'
p1176
aa(lp1177
S'2012-05-31'
p1178
aS'588.72'
p1179
aS'590.00'
p1180
aS'579.00'
p1181
aS'580.86'
p1182
aS'2968300'
p1183
aS'580.8'
p1184
aa(lp1185
S'2012-05-30'
p1186
aS'588.16'
p1187
aS'591.90'
p1188
aS'583.53'
p1189
aS'588.23'
p1190
aS'1906700'
p1191
aS'588.2'
p1192
aa(lp1193
S'2012-05-29'
p1194
aS'595.81'
p1195
aS'599.13'
p1196
aS'588.32'
p1197
aS'594.34'
p1198
aS'2605700'
p1199
aS'594.3'
p1200
aa(lp1201
S'2012-05-25'
p1202
aS'601.00'
p1203
aS'601.73'
p1204
aS'588.28'
p1205
aS'591.53'
p1206
aS'3581900'
p1207
aS'591.5'
p1208
aa(lp1209
S'2012-05-24'
p1210
aS'609.16'
p1211
aS'611.92'
p1212
aS'598.87'
p1213
aS'603.66'
p1214
aS'1891300'
p1215
aS'603.6'
p1216
aa(lp1217
S'2012-05-23'
p1218
aS'601.65'
p1219
aS'609.60'
p1220
aS'597.12'
p1221
aS'609.46'
p1222
aS'3178100'
p1223
aS'609.4'
p1224
aa(lp1225
S'2012-05-22'
p1226
aS'613.44'
p1227
aS'613.81'
p1228
aS'596.00'
p1229
aS'600.80'
p1230
aS'3051900'
p1231
aS'600.8'
p1232
aa(lp1233
S'2012-05-21'
p1234
aS'600.51'
p1235
aS'615.69'
p1236
aS'600.00'
p1237
aS'614.11'
p1238
aS'3075400'
p1239
aS'614.1'
p1240
aa(lp1241
S'2012-05-18'
p1242
aS'625.10'
p1243
aS'632.42'
p1244
aS'596.70'
p1245
aS'600.40'
p1246
aS'5973500'
p1247
aS'600.4'
p1248
aa(lp1249
S'2012-05-17'
p1250
aS'633.83'
p1251
aS'637.85'
p1252
aS'621.23'
p1253
aS'623.05'
p1254
aS'3353800'
p1255
aS'623.0'
p1256
aa(lp1257
S'2012-05-16'
p1258
aS'617.96'
p1259
aS'630.10'
p1260
aS'615.94'
p1261
aS'628.93'
p1262
aS'4835100'
p1263
aS'628.9'
p1264
aa(lp1265
S'2012-05-15'
p1266
aS'605.35'
p1267
aS'615.00'
p1268
aS'603.75'
p1269
aS'611.11'
p1270
aS'2102100'
p1271
aS'611.1'
p1272
aa(lp1273
S'2012-05-14'
p1274
aS'600.78'
p1275
aS'608.50'
p1276
aS'600.58'
p1277
aS'604.00'
p1278
aS'1824400'
p1279
aS'604.0'
p1280
aa(lp1281
S'2012-05-11'
p1282
aS'610.35'
p1283
aS'614.55'
p1284
aS'604.77'
p1285
aS'605.23'
p1286
aS'2099400'
p1287
aS'605.2'
p1288
aa(lp1289
S'2012-05-10'
p1290
aS'612.96'
p1291
aS'616.19'
p1292
aS'610.23'
p1293
aS'613.66'
p1294
aS'1535900'
p1295
aS'613.6'
p1296
aa(lp1297
S'2012-05-09'
p1298
aS'606.82'
p1299
aS'616.38'
p1300
aS'601.81'
p1301
aS'609.15'
p1302
aS'2328800'
p1303
aS'609.1'
p1304
aa(lp1305
S'2012-05-08'
p1306
aS'605.53'
p1307
aS'616.90'
p1308
aS'600.70'
p1309
aS'612.79'
p1310
aS'2677300'
p1311
aS'612.7'
p1312
aa(lp1313
S'2012-05-07'
p1314
aS'595.00'
p1315
aS'610.57'
p1316
aS'595.00'
p1317
aS'607.55'
p1318
aS'1994500'
p1319
aS'607.5'
p1320
aa(lp1321
S'2012-05-04'
p1322
aS'605.92'
p1323
aS'607.89'
p1324
aS'596.81'
p1325
aS'596.97'
p1326
aS'2207400'
p1327
aS'596.9'
p1328
aa(lp1329
S'2012-05-03'
p1330
aS'609.62'
p1331
aS'614.83'
p1332
aS'608.95'
p1333
aS'611.02'
p1334
aS'1868000'
p1335
aS'611.0'
p1336
aa(lp1337
S'2012-05-02'
p1338
aS'601.20'
p1339
aS'608.11'
p1340
aS'600.61'
p1341
aS'607.26'
p1342
aS'1611500'
p1343
aS'607.2'
p1344
aa(lp1345
S'2012-05-01'
p1346
aS'603.79'
p1347
aS'611.60'
p1348
aS'600.19'
p1349
aS'604.43'
p1350
aS'2002300'
p1351
aS'604.4'
p1352
aa(lp1353
S'2012-04-30'
p1354
aS'612.99'
p1355
aS'616.08'
p1356
aS'600.61'
p1357
aS'604.85'
p1358
aS'2407300'
p1359
aS'604.8'
p1360
aa(lp1361
S'2012-04-27'
p1362
aS'615.02'
p1363
aS'616.74'
p1364
aS'610.60'
p1365
aS'614.98'
p1366
aS'1636400'
p1367
aS'614.9'
p1368
aa(lp1369
S'2012-04-26'
p1370
aS'610.91'
p1371
aS'618.00'
p1372
aS'609.70'
p1373
aS'615.47'
p1374
aS'2092500'
p1375
aS'615.4'
p1376
aa(lp1377
S'2012-04-25'
p1378
aS'604.00'
p1379
aS'611.35'
p1380
aS'602.88'
p1381
aS'609.72'
p1382
aS'1821100'
p1383
aS'609.7'
p1384
aa(lp1385
S'2012-04-24'
p1386
aS'598.24'
p1387
aS'606.63'
p1388
aS'597.32'
p1389
aS'601.27'
p1390
aS'1929100'
p1391
aS'601.2'
p1392
aa(lp1393
S'2012-04-23'
p1394
aS'592.90'
p1395
aS'598.45'
p1396
aS'590.20'
p1397
aS'597.60'
p1398
aS'2197800'
p1399
aS'597.6'
p1400
aa(lp1401
S'2012-04-20'
p1402
aS'604.25'
p1403
aS'608.85'
p1404
aS'595.83'
p1405
aS'596.06'
p1406
aS'3058400'
p1407
aS'596.0'
p1408
aa(lp1409
S'2012-04-19'
p1410
aS'605.69'
p1411
aS'616.26'
p1412
aS'599.00'
p1413
aS'599.30'
p1414
aS'3294600'
p1415
aS'599.3'
p1416
aa(lp1417
S'2012-04-18'
p1418
aS'608.05'
p1419
aS'612.80'
p1420
aS'602.81'
p1421
aS'607.45'
p1422
aS'2669500'
p1423
aS'607.4'
p1424
aa(lp1425
S'2012-04-17'
p1426
aS'608.56'
p1427
aS'617.69'
p1428
aS'607.01'
p1429
aS'609.57'
p1430
aS'3023900'
p1431
aS'609.5'
p1432
aa(lp1433
S'2012-04-16'
p1434
aS'623.00'
p1435
aS'623.81'
p1436
aS'601.66'
p1437
aS'606.07'
p1438
aS'5692100'
p1439
aS'606.0'
p1440
aa(lp1441
S'2012-04-13'
p1442
aS'647.55'
p1443
aS'648.99'
p1444
aS'623.54'
p1445
aS'624.60'
p1446
aS'8159300'
p1447
aS'624.6'
p1448
aa(lp1449
S'2012-04-12'
p1450
aS'642.35'
p1451
aS'653.14'
p1452
aS'640.26'
p1453
aS'651.01'
p1454
aS'5756600'
p1455
aS'651.0'
p1456
aa(lp1457
S'2012-04-11'
p1458
aS'633.97'
p1459
aS'636.00'
p1460
aS'631.30'
p1461
aS'635.96'
p1462
aS'2199000'
p1463
aS'635.9'
p1464
aa(lp1465
S'2012-04-10'
p1466
aS'633.52'
p1467
aS'634.50'
p1468
aS'624.55'
p1469
aS'626.86'
p1470
aS'2482000'
p1471
aS'626.8'
p1472
aa(lp1473
S'2012-04-09'
p1474
aS'628.48'
p1475
aS'635.33'
p1476
aS'625.29'
p1477
aS'630.84'
p1478
aS'2182700'
p1479
aS'630.8'
p1480
aa(lp1481
S'2012-04-05'
p1482
aS'632.24'
p1483
aS'636.43'
p1484
aS'628.57'
p1485
aS'632.32'
p1486
aS'2318700'
p1487
aS'632.3'
p1488
aa(lp1489
S'2012-04-04'
p1490
aS'638.45'
p1491
aS'639.00'
p1492
aS'631.10'
p1493
aS'635.15'
p1494
aS'1627600'
p1495
aS'635.1'
p1496
aa(lp1497
S'2012-04-03'
p1498
aS'645.41'
p1499
aS'647.95'
p1500
aS'638.64'
p1501
aS'642.62'
p1502
aS'2044900'
p1503
aS'642.6'
p1504
aa(lp1505
S'2012-04-02'
p1506
aS'640.77'
p1507
aS'647.50'
p1508
aS'634.84'
p1509
aS'646.92'
p1510
aS'2284200'
p1511
aS'646.9'
p1512
aa(lp1513
S'2012-03-30'
p1514
aS'651.75'
p1515
aS'653.49'
p1516
aS'641.00'
p1517
aS'641.24'
p1518
aS'2310700'
p1519
aS'641.2'
p1520
aa(lp1521
S'2012-03-29'
p1522
aS'653.44'
p1523
aS'656.59'
p1524
aS'644.30'
p1525
aS'648.41'
p1526
aS'1924300'
p1527
aS'648.4'
p1528
aa(lp1529
S'2012-03-28'
p1530
aS'652.03'
p1531
aS'658.59'
p1532
aS'651.08'
p1533
aS'655.76'
p1534
aS'2538900'
p1535
aS'655.7'
p1536
aa(lp1537
S'2012-03-27'
p1538
aS'647.03'
p1539
aS'653.50'
p1540
aS'644.80'
p1541
aS'647.02'
p1542
aS'2007200'
p1543
aS'647.0'
p1544
aa(lp1545
S'2012-03-26'
p1546
aS'645.00'
p1547
aS'649.49'
p1548
aS'639.54'
p1549
aS'649.33'
p1550
aS'1819200'
p1551
aS'649.3'
p1552
aa(lp1553
S'2012-03-23'
p1554
aS'646.60'
p1555
aS'648.50'
p1556
aS'640.90'
p1557
aS'642.59'
p1558
aS'1940200'
p1559
aS'642.5'
p1560
aa(lp1561
S'2012-03-22'
p1562
aS'638.50'
p1563
aS'648.80'
p1564
aS'631.00'
p1565
aS'646.05'
p1566
aS'2410200'
p1567
aS'646.0'
p1568
aa(lp1569
S'2012-03-21'
p1570
aS'634.61'
p1571
aS'647.39'
p1572
aS'632.51'
p1573
aS'639.98'
p1574
aS'2469600'
p1575
aS'639.9'
p1576
aa(lp1577
S'2012-03-20'
p1578
aS'630.92'
p1579
aS'636.06'
p1580
aS'627.27'
p1581
aS'633.49'
p1582
aS'1540500'
p1583
aS'633.4'
p1584
aa(lp1585
S'2012-03-19'
p1586
aS'623.12'
p1587
aS'637.27'
p1588
aS'621.24'
p1589
aS'633.98'
p1590
aS'2172800'
p1591
aS'633.9'
p1592
aa(lp1593
S'2012-03-16'
p1594
aS'620.89'
p1595
aS'625.91'
p1596
aS'620.05'
p1597
aS'625.04'
p1598
aS'3050500'
p1599
aS'625.0'
p1600
aa(lp1601
S'2012-03-15'
p1602
aS'616.60'
p1603
aS'623.50'
p1604
aS'614.83'
p1605
aS'621.13'
p1606
aS'2435100'
p1607
aS'621.1'
p1608
aa(lp1609
S'2012-03-14'
p1610
aS'615.00'
p1611
aS'622.78'
p1612
aS'613.46'
p1613
aS'615.99'
p1614
aS'2936900'
p1615
aS'615.9'
p1616
aa(lp1617
S'2012-03-13'
p1618
aS'608.75'
p1619
aS'617.85'
p1620
aS'605.55'
p1621
aS'617.78'
p1622
aS'2245800'
p1623
aS'617.7'
p1624
aa(lp1625
S'2012-03-12'
p1626
aS'600.00'
p1627
aS'607.00'
p1628
aS'599.26'
p1629
aS'605.15'
p1630
aS'1669000'
p1631
aS'605.1'
p1632
aa(lp1633
S'2012-03-09'
p1634
aS'607.95'
p1635
aS'611.90'
p1636
aS'600.00'
p1637
aS'600.25'
p1638
aS'2670600'
p1639
aS'600.2'
p1640
aa(lp1641
S'2012-03-08'
p1642
aS'610.04'
p1643
aS'611.50'
p1644
aS'606.35'
p1645
aS'607.14'
p1646
aS'1345500'
p1647
aS'607.1'
p1648
aa(lp1649
S'2012-03-07'
p1650
aS'609.05'
p1651
aS'611.19'
p1652
aS'605.86'
p1653
aS'606.80'
p1654
aS'1264500'
p1655
aS'606.8'
p1656
aa(lp1657
S'2012-03-06'
p1658
aS'608.05'
p1659
aS'608.81'
p1660
aS'593.84'
p1661
aS'604.96'
p1662
aS'3174400'
p1663
aS'604.9'
p1664
aa(lp1665
S'2012-03-05'
p1666
aS'620.43'
p1667
aS'622.49'
p1668
aS'611.38'
p1669
aS'614.25'
p1670
aS'1593300'
p1671
aS'614.2'
p1672
aa(lp1673
S'2012-03-02'
p1674
aS'622.00'
p1675
aS'624.00'
p1676
aS'620.32'
p1677
aS'621.25'
p1678
aS'1573300'
p1679
aS'621.2'
p1680
aa(lp1681
S'2012-03-01'
p1682
aS'622.26'
p1683
aS'625.70'
p1684
aS'618.15'
p1685
aS'622.40'
p1686
aS'2237700'
p1687
aS'622.4'
p1688
aa(lp1689
S'2012-02-29'
p1690
aS'618.60'
p1691
aS'625.60'
p1692
aS'615.50'
p1693
aS'618.25'
p1694
aS'3136900'
p1695
aS'618.2'
p1696
aa(lp1697
S'2012-02-28'
p1698
aS'610.00'
p1699
aS'619.77'
p1700
aS'607.68'
p1701
aS'618.39'
p1702
aS'2847600'
p1703
aS'618.3'
p1704
aa(lp1705
S'2012-02-27'
p1706
aS'606.59'
p1707
aS'612.36'
p1708
aS'605.06'
p1709
aS'609.31'
p1710
aS'1813900'
p1711
aS'609.3'
p1712
aa(lp1713
S'2012-02-24'
p1714
aS'607.35'
p1715
aS'611.65'
p1716
aS'605.51'
p1717
aS'609.90'
p1718
aS'1935600'
p1719
aS'609.9'
p1720
aa(lp1721
S'2012-02-23'
p1722
aS'607.00'
p1723
aS'607.94'
p1724
aS'600.35'
p1725
aS'606.11'
p1726
aS'2055000'
p1727
aS'606.1'
p1728
aa(lp1729
S'2012-02-22'
p1730
aS'611.96'
p1731
aS'616.78'
p1732
aS'606.71'
p1733
aS'607.94'
p1734
aS'1967000'
p1735
aS'607.9'
p1736
aa(lp1737
S'2012-02-21'
p1738
aS'603.87'
p1739
aS'617.88'
p1740
aS'602.88'
p1741
aS'614.00'
p1742
aS'2480800'
p1743
aS'614.0'
p1744
aa(lp1745
S'2012-02-17'
p1746
aS'604.97'
p1747
aS'607.63'
p1748
aS'602.40'
p1749
aS'604.64'
p1750
aS'2449100'
p1751
aS'604.6'
p1752
aa(lp1753
S'2012-02-16'
p1754
aS'602.82'
p1755
aS'608.81'
p1756
aS'597.73'
p1757
aS'606.52'
p1758
aS'2530900'
p1759
aS'606.5'
p1760
aa(lp1761
S'2012-02-15'
p1762
aS'612.93'
p1763
aS'612.93'
p1764
aS'602.56'
p1765
aS'605.56'
p1766
aS'2425900'
p1767
aS'605.5'
p1768
aa(lp1769
S'2012-02-14'
p1770
aS'611.54'
p1771
aS'612.00'
p1772
aS'604.76'
p1773
aS'609.76'
p1774
aS'1803700'
p1775
aS'609.7'
p1776
aa(lp1777
S'2012-02-13'
p1778
aS'610.50'
p1779
aS'613.84'
p1780
aS'610.02'
p1781
aS'612.20'
p1782
aS'1816300'
p1783
aS'612.2'
p1784
aa(lp1785
S'2012-02-10'
p1786
aS'607.88'
p1787
aS'608.13'
p1788
aS'604.00'
p1789
aS'605.91'
p1790
aS'2325200'
p1791
aS'605.9'
p1792
aa(lp1793
S'2012-02-09'
p1794
aS'612.02'
p1795
aS'614.50'
p1796
aS'609.00'
p1797
aS'611.46'
p1798
aS'2264700'
p1799
aS'611.4'
p1800
aa(lp1801
S'2012-02-08'
p1802
aS'608.64'
p1803
aS'611.35'
p1804
aS'604.74'
p1805
aS'609.85'
p1806
aS'1836400'
p1807
aS'609.8'
p1808
aa(lp1809
S'2012-02-07'
p1810
aS'607.15'
p1811
aS'609.39'
p1812
aS'603.76'
p1813
aS'606.77'
p1814
aS'2092100'
p1815
aS'606.7'
p1816
aa(lp1817
S'2012-02-06'
p1818
aS'595.01'
p1819
aS'610.83'
p1820
aS'594.01'
p1821
aS'609.09'
p1822
aS'3679600'
p1823
aS'609.0'
p1824
aa(lp1825
S'2012-02-03'
p1826
aS'590.66'
p1827
aS'597.07'
p1828
aS'588.05'
p1829
aS'596.33'
p1830
aS'3168500'
p1831
aS'596.3'
p1832
aa(lp1833
S'2012-02-02'
p1834
aS'584.87'
p1835
aS'586.41'
p1836
aS'582.08'
p1837
aS'585.11'
p1838
aS'2414700'
p1839
aS'585.1'
p1840
aa(lp1841
S'2012-02-01'
p1842
aS'584.94'
p1843
aS'585.50'
p1844
aS'579.14'
p1845
aS'580.83'
p1846
aS'2320700'
p1847
aS'580.8'
p1848
aa(lp1849
S'2012-01-31'
p1850
aS'583.00'
p1851
aS'584.00'
p1852
aS'575.15'
p1853
aS'580.11'
p1854
aS'2142400'
p1855
aS'580.1'
p1856
aa(lp1857
S'2012-01-30'
p1858
aS'578.05'
p1859
aS'580.00'
p1860
aS'573.40'
p1861
aS'577.69'
p1862
aS'2330500'
p1863
aS'577.6'
p1864
aa(lp1865
S'2012-01-27'
p1866
aS'570.78'
p1867
aS'580.32'
p1868
aS'569.33'
p1869
aS'579.98'
p1870
aS'3617500'
p1871
aS'579.9'
p1872
aa(lp1873
S'2012-01-26'
p1874
aS'571.98'
p1875
aS'574.48'
p1876
aS'564.55'
p1877
aS'568.10'
p1878
aS'3226200'
p1879
aS'568.1'
p1880
aa(lp1881
S'2012-01-25'
p1882
aS'577.51'
p1883
aS'578.71'
p1884
aS'566.38'
p1885
aS'569.49'
p1886
aS'4987700'
p1887
aS'569.4'
p1888
aa(lp1889
S'2012-01-24'
p1890
aS'586.32'
p1891
aS'587.68'
p1892
aS'578.00'
p1893
aS'580.93'
p1894
aS'3055800'
p1895
aS'580.9'
p1896
aa(lp1897
S'2012-01-23'
p1898
aS'586.00'
p1899
aS'588.66'
p1900
aS'583.16'
p1901
aS'585.52'
p1902
aS'3412900'
p1903
aS'585.5'
p1904
aa(lp1905
S'2012-01-20'
p1906
aS'590.53'
p1907
aS'591.00'
p1908
aS'581.70'
p1909
aS'585.99'
p1910
aS'10576300'
p1911
aS'585.9'
p1912
aa(lp1913
S'2012-01-19'
p1914
aS'640.99'
p1915
aS'640.99'
p1916
aS'631.46'
p1917
aS'639.57'
p1918
aS'6305300'
p1919
aS'639.5'
p1920
aa(lp1921
S'2012-01-18'
p1922
aS'626.63'
p1923
aS'634.00'
p1924
aS'622.12'
p1925
aS'632.91'
p1926
aS'2761700'
p1927
aS'632.9'
p1928
aa(lp1929
S'2012-01-17'
p1930
aS'631.98'
p1931
aS'631.98'
p1932
aS'625.68'
p1933
aS'628.58'
p1934
aS'1909300'
p1935
aS'628.5'
p1936
aa(lp1937
S'2012-01-13'
p1938
aS'626.26'
p1939
aS'626.95'
p1940
aS'621.06'
p1941
aS'624.99'
p1942
aS'2307300'
p1943
aS'624.9'
p1944
aa(lp1945
S'2012-01-12'
p1946
aS'631.22'
p1947
aS'632.89'
p1948
aS'626.50'
p1949
aS'629.64'
p1950
aS'1875200'
p1951
aS'629.6'
p1952
aa(lp1953
S'2012-01-11'
p1954
aS'623.50'
p1955
aS'629.39'
p1956
aS'621.12'
p1957
aS'625.96'
p1958
aS'2400000'
p1959
aS'625.9'
p1960
aa(lp1961
S'2012-01-10'
p1962
aS'629.75'
p1963
aS'633.80'
p1964
aS'616.91'
p1965
aS'623.14'
p1966
aS'4395600'
p1967
aS'623.1'
p1968
aa(lp1969
S'2012-01-09'
p1970
aS'646.50'
p1971
aS'647.00'
p1972
aS'621.23'
p1973
aS'622.46'
p1974
aS'5822600'
p1975
aS'622.4'
p1976
aa(lp1977
S'2012-01-06'
p1978
aS'659.15'
p1979
aS'660.00'
p1980
aS'649.79'
p1981
aS'650.02'
p1982
aS'2692900'
p1983
aS'650.0'
p1984
aa(lp1985
S'2012-01-05'
p1986
aS'662.13'
p1987
aS'663.97'
p1988
aS'656.23'
p1989
aS'659.01'
p1990
aS'3282900'
p1991
aS'659.0'
p1992
aa(lp1993
S'2012-01-04'
p1994
aS'665.03'
p1995
aS'670.25'
p1996
aS'660.62'
p1997
aS'668.28'
p1998
aS'2864000'
p1999
aS'668.2'
p2000
aa(lp2001
S'2012-01-03'
p2002
aS'652.94'
p2003
aS'668.15'
p2004
aS'652.37'
p2005
aS'665.41'
p2006
aS'3676500'
p2007
aS'665.4'
p2008
aa.