(lp0
(lp1
S'Date'
p2
aS'Open'
p3
aS'High'
p4
aS'Low'
p5
aS'Close'
p6
aS'Volume'
p7
aS'Adj Clos'
p8
aa(lp9
S'2012-01-31'
p10
aS'583.00'
p11
aS'584.00'
p12
aS'575.15'
p13
aS'580.11'
p14
aS'2142400'
p15
aS'580.1'
p16
aa(lp17
S'2012-01-30'
p18
aS'578.05'
p19
aS'580.00'
p20
aS'573.40'
p21
aS'577.69'
p22
aS'2330500'
p23
aS'577.6'
p24
aa(lp25
S'2012-01-27'
p26
aS'570.78'
p27
aS'580.32'
p28
aS'569.33'
p29
aS'579.98'
p30
aS'3617500'
p31
aS'579.9'
p32
aa(lp33
S'2012-01-26'
p34
aS'571.98'
p35
aS'574.48'
p36
aS'564.55'
p37
aS'568.10'
p38
aS'3226200'
p39
aS'568.1'
p40
aa(lp41
S'2012-01-25'
p42
aS'577.51'
p43
aS'578.71'
p44
aS'566.38'
p45
aS'569.49'
p46
aS'4987700'
p47
aS'569.4'
p48
aa(lp49
S'2012-01-24'
p50
aS'586.32'
p51
aS'587.68'
p52
aS'578.00'
p53
aS'580.93'
p54
aS'3055800'
p55
aS'580.9'
p56
aa(lp57
S'2012-01-23'
p58
aS'586.00'
p59
aS'588.66'
p60
aS'583.16'
p61
aS'585.52'
p62
aS'3412900'
p63
aS'585.5'
p64
aa(lp65
S'2012-01-20'
p66
aS'590.53'
p67
aS'591.00'
p68
aS'581.70'
p69
aS'585.99'
p70
aS'10576300'
p71
aS'585.9'
p72
aa(lp73
S'2012-01-19'
p74
aS'640.99'
p75
aS'640.99'
p76
aS'631.46'
p77
aS'639.57'
p78
aS'6305300'
p79
aS'639.5'
p80
aa(lp81
S'2012-01-18'
p82
aS'626.63'
p83
aS'634.00'
p84
aS'622.12'
p85
aS'632.91'
p86
aS'2761700'
p87
aS'632.9'
p88
aa(lp89
S'2012-01-17'
p90
aS'631.98'
p91
aS'631.98'
p92
aS'625.68'
p93
aS'628.58'
p94
aS'1909300'
p95
aS'628.5'
p96
aa(lp97
S'2012-01-13'
p98
aS'626.26'
p99
aS'626.95'
p100
aS'621.06'
p101
aS'624.99'
p102
aS'2307300'
p103
aS'624.9'
p104
aa(lp105
S'2012-01-12'
p106
aS'631.22'
p107
aS'632.89'
p108
aS'626.50'
p109
aS'629.64'
p110
aS'1875200'
p111
aS'629.6'
p112
aa(lp113
S'2012-01-11'
p114
aS'623.50'
p115
aS'629.39'
p116
aS'621.12'
p117
aS'625.96'
p118
aS'2400000'
p119
aS'625.9'
p120
aa(lp121
S'2012-01-10'
p122
aS'629.75'
p123
aS'633.80'
p124
aS'616.91'
p125
aS'623.14'
p126
aS'4395600'
p127
aS'623.1'
p128
aa(lp129
S'2012-01-09'
p130
aS'646.50'
p131
aS'647.00'
p132
aS'621.23'
p133
aS'622.46'
p134
aS'5822600'
p135
aS'622.4'
p136
aa(lp137
S'2012-01-06'
p138
aS'659.15'
p139
aS'660.00'
p140
aS'649.79'
p141
aS'650.02'
p142
aS'2692900'
p143
aS'650.0'
p144
aa(lp145
S'2012-01-05'
p146
aS'662.13'
p147
aS'663.97'
p148
aS'656.23'
p149
aS'659.01'
p150
aS'3282900'
p151
aS'659.0'
p152
aa(lp153
S'2012-01-04'
p154
aS'665.03'
p155
aS'670.25'
p156
aS'660.62'
p157
aS'668.28'
p158
aS'2864000'
p159
aS'668.2'
p160
aa(lp161
S'2012-01-03'
p162
aS'652.94'
p163
aS'668.15'
p164
aS'652.37'
p165
aS'665.41'
p166
aS'3676500'
p167
aS'665.4'
p168
aa.