(lp0
(lp1
S'Date'
p2
aS'Open'
p3
aS'High'
p4
aS'Low'
p5
aS'Close'
p6
aS'Volume'
p7
aS'Adj Clos'
p8
aa(lp9
S'2012-12-31'
p10
aS'700.00'
p11
aS'710.57'
p12
aS'696.00'
p13
aS'707.38'
p14
aS'1997400'
p15
aS'707.3'
p16
aa(lp17
S'2012-12-28'
p18
aS'701.69'
p19
aS'706.91'
p20
aS'700.01'
p21
aS'700.01'
p22
aS'1402000'
p23
aS'700.0'
p24
aa(lp25
S'2012-12-27'
p26
aS'707.14'
p27
aS'708.84'
p28
aS'698.61'
p29
aS'706.29'
p30
aS'1647400'
p31
aS'706.2'
p32
aa(lp33
S'2012-12-26'
p34
aS'708.07'
p35
aS'712.88'
p36
aS'702.41'
p37
aS'708.87'
p38
aS'1182400'
p39
aS'708.8'
p40
aa(lp41
S'2012-12-24'
p42
aS'714.51'
p43
aS'715.18'
p44
aS'707.47'
p45
aS'709.50'
p46
aS'840900'
p47
aS'709.5'
p48
aa(lp49
S'2012-12-21'
p50
aS'713.97'
p51
aS'718.82'
p52
aS'710.52'
p53
aS'715.63'
p54
aS'3526000'
p55
aS'715.6'
p56
aa(lp57
S'2012-12-20'
p58
aS'723.26'
p59
aS'724.65'
p60
aS'716.97'
p61
aS'722.36'
p62
aS'1657000'
p63
aS'722.3'
p64
aa(lp65
S'2012-12-19'
p66
aS'720.71'
p67
aS'723.00'
p68
aS'716.68'
p69
aS'720.11'
p70
aS'1918600'
p71
aS'720.1'
p72
aa(lp73
S'2012-12-18'
p74
aS'716.60'
p75
aS'729.10'
p76
aS'715.05'
p77
aS'721.07'
p78
aS'3004900'
p79
aS'721.0'
p80
aa(lp81
S'2012-12-17'
p82
aS'705.50'
p83
aS'721.92'
p84
aS'704.02'
p85
aS'720.78'
p86
aS'3035400'
p87
aS'720.7'
p88
aa(lp89
S'2012-12-14'
p90
aS'699.17'
p91
aS'707.82'
p92
aS'698.43'
p93
aS'701.96'
p94
aS'2130100'
p95
aS'701.9'
p96
aa(lp97
S'2012-12-13'
p98
aS'715.92'
p99
aS'716.47'
p100
aS'699.55'
p101
aS'702.70'
p102
aS'3444900'
p103
aS'702.7'
p104
aa(lp105
S'2012-12-12'
p106
aS'699.23'
p107
aS'703.51'
p108
aS'693.48'
p109
aS'697.56'
p110
aS'2426000'
p111
aS'697.5'
p112
aa(lp113
S'2012-12-11'
p114
aS'690.00'
p115
aS'701.92'
p116
aS'687.72'
p117
aS'696.88'
p118
aS'2687600'
p119
aS'696.8'
p120
aa(lp121
S'2012-12-10'
p122
aS'685.39'
p123
aS'691.65'
p124
aS'683.79'
p125
aS'685.42'
p126
aS'1366700'
p127
aS'685.4'
p128
aa(lp129
S'2012-12-07'
p130
aS'695.00'
p131
aS'696.88'
p132
aS'682.42'
p133
aS'684.21'
p134
aS'1919300'
p135
aS'684.2'
p136
aa(lp137
S'2012-12-06'
p138
aS'687.59'
p139
aS'695.61'
p140
aS'684.51'
p141
aS'691.13'
p142
aS'1462300'
p143
aS'691.1'
p144
aa(lp145
S'2012-12-05'
p146
aS'692.15'
p147
aS'694.50'
p148
aS'682.33'
p149
aS'687.82'
p150
aS'1862400'
p151
aS'687.8'
p152
aa(lp153
S'2012-12-04'
p154
aS'695.00'
p155
aS'695.51'
p156
aS'685.70'
p157
aS'691.03'
p158
aS'1991700'
p159
aS'691.0'
p160
aa(lp161
S'2012-12-03'
p162
aS'702.24'
p163
aS'705.89'
p164
aS'694.11'
p165
aS'695.25'
p166
aS'2192500'
p167
aS'695.2'
p168
aa(lp169
S'2012-11-30'
p170
aS'691.31'
p171
aS'699.22'
p172
aS'685.69'
p173
aS'698.37'
p174
aS'3163600'
p175
aS'698.3'
p176
aa(lp177
S'2012-11-29'
p178
aS'687.78'
p179
aS'693.90'
p180
aS'682.00'
p181
aS'691.89'
p182
aS'2776500'
p183
aS'691.8'
p184
aa(lp185
S'2012-11-28'
p186
aS'668.01'
p187
aS'684.91'
p188
aS'663.89'
p189
aS'683.67'
p190
aS'3042000'
p191
aS'683.6'
p192
aa(lp193
S'2012-11-27'
p194
aS'660.17'
p195
aS'675.00'
p196
aS'658.00'
p197
aS'670.71'
p198
aS'2508700'
p199
aS'670.7'
p200
aa(lp201
S'2012-11-26'
p202
aS'666.44'
p203
aS'667.00'
p204
aS'659.02'
p205
aS'661.15'
p206
aS'2204600'
p207
aS'661.1'
p208
aa(lp209
S'2012-11-23'
p210
aS'669.97'
p211
aS'670.00'
p212
aS'666.10'
p213
aS'667.97'
p214
aS'922500'
p215
aS'667.9'
p216
aa(lp217
S'2012-11-21'
p218
aS'668.99'
p219
aS'669.80'
p220
aS'660.40'
p221
aS'665.87'
p222
aS'2112200'
p223
aS'665.8'
p224
aa(lp225
S'2012-11-20'
p226
aS'669.51'
p227
aS'678.00'
p228
aS'664.57'
p229
aS'669.97'
p230
aS'2088700'
p231
aS'669.9'
p232
aa(lp233
S'2012-11-19'
p234
aS'655.70'
p235
aS'668.92'
p236
aS'655.53'
p237
aS'668.21'
p238
aS'2368200'
p239
aS'668.2'
p240
aa(lp241
S'2012-11-16'
p242
aS'645.99'
p243
aS'653.02'
p244
aS'636.00'
p245
aS'647.18'
p246
aS'3438200'
p247
aS'647.1'
p248
aa(lp249
S'2012-11-15'
p250
aS'650.00'
p251
aS'660.00'
p252
aS'643.90'
p253
aS'647.26'
p254
aS'1848900'
p255
aS'647.2'
p256
aa(lp257
S'2012-11-14'
p258
aS'660.66'
p259
aS'662.18'
p260
aS'650.50'
p261
aS'652.55'
p262
aS'1668400'
p263
aS'652.5'
p264
aa(lp265
S'2012-11-13'
p266
aS'663.00'
p267
aS'667.60'
p268
aS'658.23'
p269
aS'659.05'
p270
aS'1594200'
p271
aS'659.0'
p272
aa(lp273
S'2012-11-12'
p274
aS'663.75'
p275
aS'669.80'
p276
aS'660.87'
p277
aS'665.90'
p278
aS'1405900'
p279
aS'665.9'
p280
aa(lp281
S'2012-11-09'
p282
aS'654.65'
p283
aS'668.34'
p284
aS'650.30'
p285
aS'663.03'
p286
aS'3114100'
p287
aS'663.0'
p288
aa(lp289
S'2012-11-08'
p290
aS'670.20'
p291
aS'671.49'
p292
aS'651.23'
p293
aS'652.29'
p294
aS'2597000'
p295
aS'652.2'
p296
aa(lp297
S'2012-11-07'
p298
aS'675.00'
p299
aS'678.23'
p300
aS'666.49'
p301
aS'667.12'
p302
aS'2232300'
p303
aS'667.1'
p304
aa(lp305
S'2012-11-06'
p306
aS'685.48'
p307
aS'686.50'
p308
aS'677.55'
p309
aS'681.72'
p310
aS'1582800'
p311
aS'681.7'
p312
aa(lp313
S'2012-11-05'
p314
aS'684.50'
p315
aS'686.86'
p316
aS'675.56'
p317
aS'682.96'
p318
aS'1635900'
p319
aS'682.9'
p320
aa(lp321
S'2012-11-02'
p322
aS'694.79'
p323
aS'695.55'
p324
aS'687.37'
p325
aS'687.92'
p326
aS'2324400'
p327
aS'687.9'
p328
aa(lp329
S'2012-11-01'
p330
aS'679.50'
p331
aS'690.90'
p332
aS'678.72'
p333
aS'687.59'
p334
aS'2050100'
p335
aS'687.5'
p336
aa(lp337
S'2012-10-31'
p338
aS'679.86'
p339
aS'681.00'
p340
aS'675.00'
p341
aS'680.30'
p342
aS'1537000'
p343
aS'680.3'
p344
aa(lp345
S'2012-10-26'
p346
aS'676.50'
p347
aS'683.03'
p348
aS'671.20'
p349
aS'675.15'
p350
aS'1950800'
p351
aS'675.1'
p352
aa(lp353
S'2012-10-25'
p354
aS'680.00'
p355
aS'682.00'
p356
aS'673.51'
p357
aS'677.76'
p358
aS'2401100'
p359
aS'677.7'
p360
aa(lp361
S'2012-10-24'
p362
aS'686.80'
p363
aS'687.00'
p364
aS'675.27'
p365
aS'677.30'
p366
aS'2496500'
p367
aS'677.3'
p368
aa(lp369
S'2012-10-23'
p370
aS'672.01'
p371
aS'687.33'
p372
aS'672.00'
p373
aS'680.35'
p374
aS'2916600'
p375
aS'680.3'
p376
aa(lp377
S'2012-10-22'
p378
aS'681.01'
p379
aS'684.63'
p380
aS'669.70'
p381
aS'678.67'
p382
aS'4055600'
p383
aS'678.6'
p384
aa(lp385
S'2012-10-19'
p386
aS'705.58'
p387
aS'706.70'
p388
aS'672.00'
p389
aS'681.79'
p390
aS'11482200'
p391
aS'681.7'
p392
aa(lp393
S'2012-10-18'
p394
aS'755.54'
p395
aS'759.42'
p396
aS'676.00'
p397
aS'695.00'
p398
aS'12442400'
p399
aS'695.0'
p400
aa(lp401
S'2012-10-17'
p402
aS'743.95'
p403
aS'756.34'
p404
aS'740.26'
p405
aS'755.49'
p406
aS'2292900'
p407
aS'755.4'
p408
aa(lp409
S'2012-10-16'
p410
aS'740.13'
p411
aS'746.99'
p412
aS'736.46'
p413
aS'744.70'
p414
aS'2058200'
p415
aS'744.7'
p416
aa(lp417
S'2012-10-15'
p418
aS'741.94'
p419
aS'743.83'
p420
aS'730.70'
p421
aS'740.98'
p422
aS'3019100'
p423
aS'740.9'
p424
aa(lp425
S'2012-10-12'
p426
aS'751.85'
p427
aS'754.87'
p428
aS'744.10'
p429
aS'744.75'
p430
aS'2404200'
p431
aS'744.7'
p432
aa(lp433
S'2012-10-11'
p434
aS'752.90'
p435
aS'758.50'
p436
aS'750.29'
p437
aS'751.48'
p438
aS'2383900'
p439
aS'751.4'
p440
aa(lp441
S'2012-10-10'
p442
aS'741.86'
p443
aS'747.53'
p444
aS'738.29'
p445
aS'744.56'
p446
aS'2039900'
p447
aS'744.5'
p448
aa(lp449
S'2012-10-09'
p450
aS'759.67'
p451
aS'761.32'
p452
aS'742.53'
p453
aS'744.09'
p454
aS'3003200'
p455
aS'744.0'
p456
aa(lp457
S'2012-10-08'
p458
aS'761.00'
p459
aS'763.58'
p460
aS'754.15'
p461
aS'757.84'
p462
aS'1958600'
p463
aS'757.8'
p464
aa(lp465
S'2012-10-05'
p466
aS'770.71'
p467
aS'774.38'
p468
aS'765.01'
p469
aS'767.65'
p470
aS'2735900'
p471
aS'767.6'
p472
aa(lp473
S'2012-10-04'
p474
aS'762.75'
p475
aS'769.89'
p476
aS'759.40'
p477
aS'768.05'
p478
aS'2454200'
p479
aS'768.0'
p480
aa(lp481
S'2012-10-03'
p482
aS'755.72'
p483
aS'763.92'
p484
aS'752.20'
p485
aS'762.50'
p486
aS'2208300'
p487
aS'762.5'
p488
aa(lp489
S'2012-10-02'
p490
aS'765.20'
p491
aS'765.99'
p492
aS'750.27'
p493
aS'756.99'
p494
aS'2790200'
p495
aS'756.9'
p496
aa(lp497
S'2012-10-01'
p498
aS'759.05'
p499
aS'765.00'
p500
aS'756.21'
p501
aS'761.78'
p502
aS'3168000'
p503
aS'761.7'
p504
aa(lp505
S'2012-09-28'
p506
aS'754.15'
p507
aS'759.30'
p508
aS'751.15'
p509
aS'754.50'
p510
aS'2783500'
p511
aS'754.5'
p512
aa(lp513
S'2012-09-27'
p514
aS'759.95'
p515
aS'762.84'
p516
aS'751.65'
p517
aS'756.50'
p518
aS'3931100'
p519
aS'756.5'
p520
aa(lp521
S'2012-09-26'
p522
aS'749.85'
p523
aS'761.24'
p524
aS'741.00'
p525
aS'753.46'
p526
aS'5672900'
p527
aS'753.4'
p528
aa(lp529
S'2012-09-25'
p530
aS'753.05'
p531
aS'764.89'
p532
aS'747.66'
p533
aS'749.16'
p534
aS'6058500'
p535
aS'749.1'
p536
aa(lp537
S'2012-09-24'
p538
aS'731.00'
p539
aS'750.04'
p540
aS'730.25'
p541
aS'749.38'
p542
aS'3563800'
p543
aS'749.3'
p544
aa(lp545
S'2012-09-21'
p546
aS'732.21'
p547
aS'734.92'
p548
aS'730.12'
p549
aS'733.99'
p550
aS'6359100'
p551
aS'733.9'
p552
aa(lp553
S'2012-09-20'
p554
aS'724.47'
p555
aS'731.38'
p556
aS'721.22'
p557
aS'728.12'
p558
aS'2907400'
p559
aS'728.1'
p560
aa(lp561
S'2012-09-19'
p562
aS'717.50'
p563
aS'728.56'
p564
aS'716.41'
p565
aS'727.50'
p566
aS'3098300'
p567
aS'727.5'
p568
aa(lp569
S'2012-09-18'
p570
aS'707.78'
p571
aS'718.66'
p572
aS'706.78'
p573
aS'718.28'
p574
aS'2066800'
p575
aS'718.2'
p576
aa(lp577
S'2012-09-17'
p578
aS'708.11'
p579
aS'712.88'
p580
aS'705.00'
p581
aS'709.98'
p582
aS'1508300'
p583
aS'709.9'
p584
aa(lp585
S'2012-09-14'
p586
aS'709.60'
p587
aS'713.00'
p588
aS'707.01'
p589
aS'709.68'
p590
aS'2618500'
p591
aS'709.6'
p592
aa(lp593
S'2012-09-13'
p594
aS'693.09'
p595
aS'709.00'
p596
aS'690.54'
p597
aS'706.04'
p598
aS'2659000'
p599
aS'706.0'
p600
aa(lp601
S'2012-09-12'
p602
aS'689.41'
p603
aS'694.91'
p604
aS'680.88'
p605
aS'690.88'
p606
aS'2642300'
p607
aS'690.8'
p608
aa(lp609
S'2012-09-11'
p610
aS'697.96'
p611
aS'700.65'
p612
aS'691.00'
p613
aS'692.19'
p614
aS'1873800'
p615
aS'692.1'
p616
aa(lp617
S'2012-09-10'
p618
aS'709.76'
p619
aS'712.81'
p620
aS'698.39'
p621
aS'700.77'
p622
aS'2560000'
p623
aS'700.7'
p624
aa(lp625
S'2012-09-07'
p626
aS'700.00'
p627
aS'712.25'
p628
aS'697.67'
p629
aS'706.15'
p630
aS'3233000'
p631
aS'706.1'
p632
aa(lp633
S'2012-09-06'
p634
aS'685.96'
p635
aS'699.89'
p636
aS'684.73'
p637
aS'699.40'
p638
aS'3043500'
p639
aS'699.4'
p640
aa(lp641
S'2012-09-05'
p642
aS'680.00'
p643
aS'686.50'
p644
aS'679.14'
p645
aS'680.72'
p646
aS'1708200'
p647
aS'680.7'
p648
aa(lp649
S'2012-09-04'
p650
aS'684.55'
p651
aS'685.00'
p652
aS'673.50'
p653
aS'681.04'
p654
aS'1889600'
p655
aS'681.0'
p656
aa(lp657
S'2012-08-31'
p658
aS'684.00'
p659
aS'688.58'
p660
aS'680.04'
p661
aS'685.09'
p662
aS'2127100'
p663
aS'685.0'
p664
aa(lp665
S'2012-08-30'
p666
aS'684.24'
p667
aS'687.39'
p668
aS'680.18'
p669
aS'681.68'
p670
aS'1626900'
p671
aS'681.6'
p672
aa(lp673
S'2012-08-29'
p674
aS'677.37'
p675
aS'688.99'
p676
aS'676.15'
p677
aS'688.01'
p678
aS'2990300'
p679
aS'688.0'
p680
aa(lp681
S'2012-08-28'
p682
aS'665.00'
p683
aS'677.62'
p684
aS'664.74'
p685
aS'677.25'
p686
aS'2058600'
p687
aS'677.2'
p688
aa(lp689
S'2012-08-27'
p690
aS'662.99'
p691
aS'672.00'
p692
aS'659.24'
p693
aS'669.22'
p694
aS'2613700'
p695
aS'669.2'
p696
aa(lp697
S'2012-08-24'
p698
aS'675.60'
p699
aS'680.45'
p700
aS'674.08'
p701
aS'678.63'
p702
aS'1426600'
p703
aS'678.6'
p704
aa(lp705
S'2012-08-23'
p706
aS'674.27'
p707
aS'680.48'
p708
aS'671.00'
p709
aS'676.80'
p710
aS'1784200'
p711
aS'676.8'
p712
aa(lp713
S'2012-08-22'
p714
aS'667.38'
p715
aS'680.60'
p716
aS'666.70'
p717
aS'677.18'
p718
aS'1909200'
p719
aS'677.1'
p720
aa(lp721
S'2012-08-21'
p722
aS'673.11'
p723
aS'678.00'
p724
aS'662.17'
p725
aS'669.51'
p726
aS'2222200'
p727
aS'669.5'
p728
aa(lp729
S'2012-08-20'
p730
aS'675.50'
p731
aS'678.87'
p732
aS'672.66'
p733
aS'675.54'
p734
aS'1758100'
p735
aS'675.5'
p736
aa(lp737
S'2012-08-17'
p738
aS'674.12'
p739
aS'677.25'
p740
aS'671.70'
p741
aS'677.14'
p742
aS'2177700'
p743
aS'677.1'
p744
aa(lp745
S'2012-08-16'
p746
aS'667.51'
p747
aS'674.64'
p748
aS'667.08'
p749
aS'672.87'
p750
aS'1717700'
p751
aS'672.8'
p752
aa(lp753
S'2012-08-15'
p754
aS'670.28'
p755
aS'674.25'
p756
aS'664.10'
p757
aS'667.54'
p758
aS'2410700'
p759
aS'667.5'
p760
aa(lp761
S'2012-08-14'
p762
aS'659.25'
p763
aS'672.85'
p764
aS'659.00'
p765
aS'668.66'
p766
aS'3661700'
p767
aS'668.6'
p768
aa(lp769
S'2012-08-13'
p770
aS'647.42'
p771
aS'660.15'
p772
aS'646.68'
p773
aS'660.01'
p774
aS'3267900'
p775
aS'660.0'
p776
aa(lp777
S'2012-08-10'
p778
aS'638.59'
p779
aS'642.24'
p780
aS'636.13'
p781
aS'642.00'
p782
aS'1434600'
p783
aS'642.0'
p784
aa(lp785
S'2012-08-09'
p786
aS'644.51'
p787
aS'646.37'
p788
aS'641.52'
p789
aS'642.35'
p790
aS'1070300'
p791
aS'642.3'
p792
aa(lp793
S'2012-08-08'
p794
aS'639.05'
p795
aS'645.87'
p796
aS'638.50'
p797
aS'642.23'
p798
aS'1322200'
p799
aS'642.2'
p800
aa(lp801
S'2012-08-07'
p802
aS'641.79'
p803
aS'644.26'
p804
aS'636.47'
p805
aS'640.54'
p806
aS'1981800'
p807
aS'640.5'
p808
aa(lp809
S'2012-08-06'
p810
aS'639.61'
p811
aS'649.38'
p812
aS'639.22'
p813
aS'642.82'
p814
aS'1782400'
p815
aS'642.8'
p816
aa(lp817
S'2012-08-03'
p818
aS'640.00'
p819
aS'643.72'
p820
aS'636.14'
p821
aS'641.33'
p822
aS'1897100'
p823
aS'641.3'
p824
aa(lp825
S'2012-08-02'
p826
aS'625.51'
p827
aS'638.03'
p828
aS'623.41'
p829
aS'628.75'
p830
aS'1977700'
p831
aS'628.7'
p832
aa(lp833
S'2012-08-01'
p834
aS'637.30'
p835
aS'639.51'
p836
aS'631.38'
p837
aS'632.68'
p838
aS'1844600'
p839
aS'632.6'
p840
aa(lp841
S'2012-07-31'
p842
aS'628.26'
p843
aS'636.50'
p844
aS'628.22'
p845
aS'632.97'
p846
aS'1865600'
p847
aS'632.9'
p848
aa(lp849
S'2012-07-30'
p850
aS'636.05'
p851
aS'642.60'
p852
aS'629.50'
p853
aS'632.30'
p854
aS'2186700'
p855
aS'632.3'
p856
aa(lp857
S'2012-07-27'
p858
aS'618.89'
p859
aS'635.00'
p860
aS'617.50'
p861
aS'634.96'
p862
aS'3549700'
p863
aS'634.9'
p864
aa(lp865
S'2012-07-26'
p866
aS'615.00'
p867
aS'616.87'
p868
aS'610.03'
p869
aS'613.36'
p870
aS'1685200'
p871
aS'613.3'
p872
aa(lp873
S'2012-07-25'
p874
aS'608.32'
p875
aS'613.38'
p876
aS'605.37'
p877
aS'607.99'
p878
aS'1823000'
p879
aS'607.9'
p880
aa(lp881
S'2012-07-24'
p882
aS'615.00'
p883
aS'617.93'
p884
aS'604.34'
p885
aS'607.57'
p886
aS'2009400'
p887
aS'607.5'
p888
aa(lp889
S'2012-07-23'
p890
aS'600.48'
p891
aS'618.35'
p892
aS'598.25'
p893
aS'615.51'
p894
aS'3561700'
p895
aS'615.5'
p896
aa(lp897
S'2012-07-20'
p898
aS'608.76'
p899
aS'612.94'
p900
aS'598.18'
p901
aS'610.82'
p902
aS'6463700'
p903
aS'610.8'
p904
aa(lp905
S'2012-07-19'
p906
aS'586.14'
p907
aS'598.48'
p908
aS'586.00'
p909
aS'593.06'
p910
aS'4674700'
p911
aS'593.0'
p912
aa(lp913
S'2012-07-18'
p914
aS'576.98'
p915
aS'583.69'
p916
aS'576.13'
p917
aS'580.76'
p918
aS'1548200'
p919
aS'580.7'
p920
aa(lp921
S'2012-07-17'
p922
aS'578.43'
p923
aS'580.67'
p924
aS'568.40'
p925
aS'576.73'
p926
aS'1680100'
p927
aS'576.7'
p928
aa(lp929
S'2012-07-16'
p930
aS'576.37'
p931
aS'579.19'
p932
aS'571.78'
p933
aS'574.92'
p934
aS'1462600'
p935
aS'574.9'
p936
aa(lp937
S'2012-07-13'
p938
aS'572.15'
p939
aS'579.15'
p940
aS'568.55'
p941
aS'576.52'
p942
aS'1976000'
p943
aS'576.5'
p944
aa(lp945
S'2012-07-12'
p946
aS'567.12'
p947
aS'571.93'
p948
aS'562.09'
p949
aS'570.48'
p950
aS'2309800'
p951
aS'570.4'
p952
aa(lp953
S'2012-07-11'
p954
aS'576.30'
p955
aS'577.85'
p956
aS'564.94'
p957
aS'571.19'
p958
aS'3499300'
p959
aS'571.1'
p960
aa(lp961
S'2012-07-10'
p962
aS'590.19'
p963
aS'592.43'
p964
aS'578.74'
p965
aS'581.70'
p966
aS'1923100'
p967
aS'581.7'
p968
aa(lp969
S'2012-07-09'
p970
aS'584.95'
p971
aS'588.60'
p972
aS'581.25'
p973
aS'586.01'
p974
aS'1715100'
p975
aS'586.0'
p976
aa(lp977
S'2012-07-06'
p978
aS'592.45'
p979
aS'593.52'
p980
aS'582.82'
p981
aS'585.98'
p982
aS'2161800'
p983
aS'585.9'
p984
aa(lp985
S'2012-07-05'
p986
aS'588.76'
p987
aS'600.06'
p988
aS'588.54'
p989
aS'595.92'
p990
aS'2345900'
p991
aS'595.9'
p992
aa(lp993
S'2012-07-03'
p994
aS'580.01'
p995
aS'588.41'
p996
aS'578.00'
p997
aS'587.83'
p998
aS'1189500'
p999
aS'587.8'
p1000
aa(lp1001
S'2012-07-02'
p1002
aS'581.82'
p1003
aS'583.00'
p1004
aS'576.50'
p1005
aS'580.47'
p1006
aS'1655500'
p1007
aS'580.4'
p1008
aa(lp1009
S'2012-06-29'
p1010
aS'574.96'
p1011
aS'580.13'
p1012
aS'572.20'
p1013
aS'580.07'
p1014
aS'2519500'
p1015
aS'580.0'
p1016
aa(lp1017
S'2012-06-28'
p1018
aS'565.90'
p1019
aS'566.23'
p1020
aS'557.21'
p1021
aS'564.31'
p1022
aS'1920900'
p1023
aS'564.3'
p1024
aa(lp1025
S'2012-06-27'
p1026
aS'567.70'
p1027
aS'573.99'
p1028
aS'566.02'
p1029
aS'569.30'
p1030
aS'1692300'
p1031
aS'569.3'
p1032
aa(lp1033
S'2012-06-26'
p1034
aS'562.76'
p1035
aS'566.60'
p1036
aS'559.48'
p1037
aS'564.68'
p1038
aS'1350200'
p1039
aS'564.6'
p1040
aa(lp1041
S'2012-06-25'
p1042
aS'567.33'
p1043
aS'568.09'
p1044
aS'557.35'
p1045
aS'560.70'
p1046
aS'1581600'
p1047
aS'560.7'
p1048
aa(lp1049
S'2012-06-22'
p1050
aS'568.00'
p1051
aS'571.48'
p1052
aS'565.82'
p1053
aS'571.48'
p1054
aS'2227900'
p1055
aS'571.4'
p1056
aa(lp1057
S'2012-06-21'
p1058
aS'579.84'
p1059
aS'579.84'
p1060
aS'563.73'
p1061
aS'565.21'
p1062
aS'2011300'
p1063
aS'565.2'
p1064
aa(lp1065
S'2012-06-20'
p1066
aS'579.81'
p1067
aS'580.00'
p1068
aS'573.51'
p1069
aS'577.51'
p1070
aS'2346700'
p1071
aS'577.5'
p1072
aa(lp1073
S'2012-06-19'
p1074
aS'573.59'
p1075
aS'584.28'
p1076
aS'573.12'
p1077
aS'581.53'
p1078
aS'2076200'
p1079
aS'581.5'
p1080
aa(lp1081
S'2012-06-18'
p1082
aS'562.62'
p1083
aS'574.21'
p1084
aS'559.25'
p1085
aS'570.85'
p1086
aS'2496900'
p1087
aS'570.8'
p1088
aa(lp1089
S'2012-06-15'
p1090
aS'560.34'
p1091
aS'564.52'
p1092
aS'557.09'
p1093
aS'564.51'
p1094
aS'3001200'
p1095
aS'564.5'
p1096
aa(lp1097
S'2012-06-14'
p1098
aS'561.30'
p1099
aS'565.07'
p1100
aS'556.52'
p1101
aS'559.05'
p1102
aS'2344900'
p1103
aS'559.0'
p1104
aa(lp1105
S'2012-06-13'
p1106
aS'561.72'
p1107
aS'567.00'
p1108
aS'558.68'
p1109
aS'561.09'
p1110
aS'1954200'
p1111
aS'561.0'
p1112
aa(lp1113
S'2012-06-12'
p1114
aS'569.77'
p1115
aS'570.30'
p1116
aS'558.58'
p1117
aS'565.10'
p1118
aS'3224200'
p1119
aS'565.1'
p1120
aa(lp1121
S'2012-06-11'
p1122
aS'584.21'
p1123
aS'585.32'
p1124
aS'566.69'
p1125
aS'568.50'
p1126
aS'2661100'
p1127
aS'568.5'
p1128
aa(lp1129
S'2012-06-08'
p1130
aS'575.85'
p1131
aS'581.00'
p1132
aS'574.58'
p1133
aS'580.45'
p1134
aS'1410400'
p1135
aS'580.4'
p1136
aa(lp1137
S'2012-06-07'
p1138
aS'587.60'
p1139
aS'587.89'
p1140
aS'577.25'
p1141
aS'578.23'
p1142
aS'1758500'
p1143
aS'578.2'
p1144
aa(lp1145
S'2012-06-06'
p1146
aS'576.48'
p1147
aS'581.97'
p1148
aS'573.61'
p1149
aS'580.57'
p1150
aS'2095800'
p1151
aS'580.5'
p1152
aa(lp1153
S'2012-06-05'
p1154
aS'575.45'
p1155
aS'578.13'
p1156
aS'566.47'
p1157
aS'570.41'
p1158
aS'2339900'
p1159
aS'570.4'
p1160
aa(lp1161
S'2012-06-04'
p1162
aS'570.22'
p1163
aS'580.49'
p1164
aS'570.01'
p1165
aS'578.59'
p1166
aS'2432700'
p1167
aS'578.5'
p1168
aa(lp1169
S'2012-06-01'
p1170
aS'571.79'
p1171
aS'572.65'
p1172
aS'568.35'
p1173
aS'570.98'
p1174
aS'3057900'
p1175
aS'570.9'
p1176
aa(lp1177
S'2012-05-31'
p1178
aS'588.72'
p1179
aS'590.00'
p1180
aS'579.00'
p1181
aS'580.86'
p1182
aS'2968300'
p1183
aS'580.8'
p1184
aa(lp1185
S'2012-05-30'
p1186
aS'588.16'
p1187
aS'591.90'
p1188
aS'583.53'
p1189
aS'588.23'
p1190
aS'1906700'
p1191
aS'588.2'
p1192
aa(lp1193
S'2012-05-29'
p1194
aS'595.81'
p1195
aS'599.13'
p1196
aS'588.32'
p1197
aS'594.34'
p1198
aS'2605700'
p1199
aS'594.3'
p1200
aa(lp1201
S'2012-05-25'
p1202
aS'601.00'
p1203
aS'601.73'
p1204
aS'588.28'
p1205
aS'591.53'
p1206
aS'3581900'
p1207
aS'591.5'
p1208
aa(lp1209
S'2012-05-24'
p1210
aS'609.16'
p1211
aS'611.92'
p1212
aS'598.87'
p1213
aS'603.66'
p1214
aS'1891300'
p1215
aS'603.6'
p1216
aa(lp1217
S'2012-05-23'
p1218
aS'601.65'
p1219
aS'609.60'
p1220
aS'597.12'
p1221
aS'609.46'
p1222
aS'3178100'
p1223
aS'609.4'
p1224
aa(lp1225
S'2012-05-22'
p1226
aS'613.44'
p1227
aS'613.81'
p1228
aS'596.00'
p1229
aS'600.80'
p1230
aS'3051900'
p1231
aS'600.8'
p1232
aa(lp1233
S'2012-05-21'
p1234
aS'600.51'
p1235
aS'615.69'
p1236
aS'600.00'
p1237
aS'614.11'
p1238
aS'3075400'
p1239
aS'614.1'
p1240
aa(lp1241
S'2012-05-18'
p1242
aS'625.10'
p1243
aS'632.42'
p1244
aS'596.70'
p1245
aS'600.40'
p1246
aS'5973500'
p1247
aS'600.4'
p1248
aa(lp1249
S'2012-05-17'
p1250
aS'633.83'
p1251
aS'637.85'
p1252
aS'621.23'
p1253
aS'623.05'
p1254
aS'3353800'
p1255
aS'623.0'
p1256
aa(lp1257
S'2012-05-16'
p1258
aS'617.96'
p1259
aS'630.10'
p1260
aS'615.94'
p1261
aS'628.93'
p1262
aS'4835100'
p1263
aS'628.9'
p1264
aa(lp1265
S'2012-05-15'
p1266
aS'605.35'
p1267
aS'615.00'
p1268
aS'603.75'
p1269
aS'611.11'
p1270
aS'2102100'
p1271
aS'611.1'
p1272
aa(lp1273
S'2012-05-14'
p1274
aS'600.78'
p1275
aS'608.50'
p1276
aS'600.58'
p1277
aS'604.00'
p1278
aS'1824400'
p1279
aS'604.0'
p1280
aa(lp1281
S'2012-05-11'
p1282
aS'610.35'
p1283
aS'614.55'
p1284
aS'604.77'
p1285
aS'605.23'
p1286
aS'2099400'
p1287
aS'605.2'
p1288
aa(lp1289
S'2012-05-10'
p1290
aS'612.96'
p1291
aS'616.19'
p1292
aS'610.23'
p1293
aS'613.66'
p1294
aS'1535900'
p1295
aS'613.6'
p1296
aa(lp1297
S'2012-05-09'
p1298
aS'606.82'
p1299
aS'616.38'
p1300
aS'601.81'
p1301
aS'609.15'
p1302
aS'2328800'
p1303
aS'609.1'
p1304
aa(lp1305
S'2012-05-08'
p1306
aS'605.53'
p1307
aS'616.90'
p1308
aS'600.70'
p1309
aS'612.79'
p1310
aS'2677300'
p1311
aS'612.7'
p1312
aa(lp1313
S'2012-05-07'
p1314
aS'595.00'
p1315
aS'610.57'
p1316
aS'595.00'
p1317
aS'607.55'
p1318
aS'1994500'
p1319
aS'607.5'
p1320
aa(lp1321
S'2012-05-04'
p1322
aS'605.92'
p1323
aS'607.89'
p1324
aS'596.81'
p1325
aS'596.97'
p1326
aS'2207400'
p1327
aS'596.9'
p1328
aa(lp1329
S'2012-05-03'
p1330
aS'609.62'
p1331
aS'614.83'
p1332
aS'608.95'
p1333
aS'611.02'
p1334
aS'1868000'
p1335
aS'611.0'
p1336
aa(lp1337
S'2012-05-02'
p1338
aS'601.20'
p1339
aS'608.11'
p1340
aS'600.61'
p1341
aS'607.26'
p1342
aS'1611500'
p1343
aS'607.2'
p1344
aa(lp1345
S'2012-05-01'
p1346
aS'603.79'
p1347
aS'611.60'
p1348
aS'600.19'
p1349
aS'604.43'
p1350
aS'2002300'
p1351
aS'604.4'
p1352
aa(lp1353
S'2012-04-30'
p1354
aS'612.99'
p1355
aS'616.08'
p1356
aS'600.61'
p1357
aS'604.85'
p1358
aS'2407300'
p1359
aS'604.8'
p1360
aa(lp1361
S'2012-04-27'
p1362
aS'615.02'
p1363
aS'616.74'
p1364
aS'610.60'
p1365
aS'614.98'
p1366
aS'1636400'
p1367
aS'614.9'
p1368
aa(lp1369
S'2012-04-26'
p1370
aS'610.91'
p1371
aS'618.00'
p1372
aS'609.70'
p1373
aS'615.47'
p1374
aS'2092500'
p1375
aS'615.4'
p1376
aa(lp1377
S'2012-04-25'
p1378
aS'604.00'
p1379
aS'611.35'
p1380
aS'602.88'
p1381
aS'609.72'
p1382
aS'1821100'
p1383
aS'609.7'
p1384
aa(lp1385
S'2012-04-24'
p1386
aS'598.24'
p1387
aS'606.63'
p1388
aS'597.32'
p1389
aS'601.27'
p1390
aS'1929100'
p1391
aS'601.2'
p1392
aa(lp1393
S'2012-04-23'
p1394
aS'592.90'
p1395
aS'598.45'
p1396
aS'590.20'
p1397
aS'597.60'
p1398
aS'2197800'
p1399
aS'597.6'
p1400
aa(lp1401
S'2012-04-20'
p1402
aS'604.25'
p1403
aS'608.85'
p1404
aS'595.83'
p1405
aS'596.06'
p1406
aS'3058400'
p1407
aS'596.0'
p1408
aa(lp1409
S'2012-04-19'
p1410
aS'605.69'
p1411
aS'616.26'
p1412
aS'599.00'
p1413
aS'599.30'
p1414
aS'3294600'
p1415
aS'599.3'
p1416
aa(lp1417
S'2012-04-18'
p1418
aS'608.05'
p1419
aS'612.80'
p1420
aS'602.81'
p1421
aS'607.45'
p1422
aS'2669500'
p1423
aS'607.4'
p1424
aa(lp1425
S'2012-04-17'
p1426
aS'608.56'
p1427
aS'617.69'
p1428
aS'607.01'
p1429
aS'609.57'
p1430
aS'3023900'
p1431
aS'609.5'
p1432
aa(lp1433
S'2012-04-16'
p1434
aS'623.00'
p1435
aS'623.81'
p1436
aS'601.66'
p1437
aS'606.07'
p1438
aS'5692100'
p1439
aS'606.0'
p1440
aa(lp1441
S'2012-04-13'
p1442
aS'647.55'
p1443
aS'648.99'
p1444
aS'623.54'
p1445
aS'624.60'
p1446
aS'8159300'
p1447
aS'624.6'
p1448
aa(lp1449
S'2012-04-12'
p1450
aS'642.35'
p1451
aS'653.14'
p1452
aS'640.26'
p1453
aS'651.01'
p1454
aS'5756600'
p1455
aS'651.0'
p1456
aa(lp1457
S'2012-04-11'
p1458
aS'633.97'
p1459
aS'636.00'
p1460
aS'631.30'
p1461
aS'635.96'
p1462
aS'2199000'
p1463
aS'635.9'
p1464
aa(lp1465
S'2012-04-10'
p1466
aS'633.52'
p1467
aS'634.50'
p1468
aS'624.55'
p1469
aS'626.86'
p1470
aS'2482000'
p1471
aS'626.8'
p1472
aa(lp1473
S'2012-04-09'
p1474
aS'628.48'
p1475
aS'635.33'
p1476
aS'625.29'
p1477
aS'630.84'
p1478
aS'2182700'
p1479
aS'630.8'
p1480
aa(lp1481
S'2012-04-05'
p1482
aS'632.24'
p1483
aS'636.43'
p1484
aS'628.57'
p1485
aS'632.32'
p1486
aS'2318700'
p1487
aS'632.3'
p1488
aa(lp1489
S'2012-04-04'
p1490
aS'638.45'
p1491
aS'639.00'
p1492
aS'631.10'
p1493
aS'635.15'
p1494
aS'1627600'
p1495
aS'635.1'
p1496
aa(lp1497
S'2012-04-03'
p1498
aS'645.41'
p1499
aS'647.95'
p1500
aS'638.64'
p1501
aS'642.62'
p1502
aS'2044900'
p1503
aS'642.6'
p1504
aa(lp1505
S'2012-04-02'
p1506
aS'640.77'
p1507
aS'647.50'
p1508
aS'634.84'
p1509
aS'646.92'
p1510
aS'2284200'
p1511
aS'646.9'
p1512
aa(lp1513
S'2012-03-30'
p1514
aS'651.75'
p1515
aS'653.49'
p1516
aS'641.00'
p1517
aS'641.24'
p1518
aS'2310700'
p1519
aS'641.2'
p1520
aa(lp1521
S'2012-03-29'
p1522
aS'653.44'
p1523
aS'656.59'
p1524
aS'644.30'
p1525
aS'648.41'
p1526
aS'1924300'
p1527
aS'648.4'
p1528
aa(lp1529
S'2012-03-28'
p1530
aS'652.03'
p1531
aS'658.59'
p1532
aS'651.08'
p1533
aS'655.76'
p1534
aS'2538900'
p1535
aS'655.7'
p1536
aa(lp1537
S'2012-03-27'
p1538
aS'647.03'
p1539
aS'653.50'
p1540
aS'644.80'
p1541
aS'647.02'
p1542
aS'2007200'
p1543
aS'647.0'
p1544
aa(lp1545
S'2012-03-26'
p1546
aS'645.00'
p1547
aS'649.49'
p1548
aS'639.54'
p1549
aS'649.33'
p1550
aS'1819200'
p1551
aS'649.3'
p1552
aa(lp1553
S'2012-03-23'
p1554
aS'646.60'
p1555
aS'648.50'
p1556
aS'640.90'
p1557
aS'642.59'
p1558
aS'1940200'
p1559
aS'642.5'
p1560
aa(lp1561
S'2012-03-22'
p1562
aS'638.50'
p1563
aS'648.80'
p1564
aS'631.00'
p1565
aS'646.05'
p1566
aS'2410200'
p1567
aS'646.0'
p1568
aa(lp1569
S'2012-03-21'
p1570
aS'634.61'
p1571
aS'647.39'
p1572
aS'632.51'
p1573
aS'639.98'
p1574
aS'2469600'
p1575
aS'639.9'
p1576
aa(lp1577
S'2012-03-20'
p1578
aS'630.92'
p1579
aS'636.06'
p1580
aS'627.27'
p1581
aS'633.49'
p1582
aS'1540500'
p1583
aS'633.4'
p1584
aa(lp1585
S'2012-03-19'
p1586
aS'623.12'
p1587
aS'637.27'
p1588
aS'621.24'
p1589
aS'633.98'
p1590
aS'2172800'
p1591
aS'633.9'
p1592
aa(lp1593
S'2012-03-16'
p1594
aS'620.89'
p1595
aS'625.91'
p1596
aS'620.05'
p1597
aS'625.04'
p1598
aS'3050500'
p1599
aS'625.0'
p1600
aa(lp1601
S'2012-03-15'
p1602
aS'616.60'
p1603
aS'623.50'
p1604
aS'614.83'
p1605
aS'621.13'
p1606
aS'2435100'
p1607
aS'621.1'
p1608
aa(lp1609
S'2012-03-14'
p1610
aS'615.00'
p1611
aS'622.78'
p1612
aS'613.46'
p1613
aS'615.99'
p1614
aS'2936900'
p1615
aS'615.9'
p1616
aa(lp1617
S'2012-03-13'
p1618
aS'608.75'
p1619
aS'617.85'
p1620
aS'605.55'
p1621
aS'617.78'
p1622
aS'2245800'
p1623
aS'617.7'
p1624
aa(lp1625
S'2012-03-12'
p1626
aS'600.00'
p1627
aS'607.00'
p1628
aS'599.26'
p1629
aS'605.15'
p1630
aS'1669000'
p1631
aS'605.1'
p1632
aa(lp1633
S'2012-03-09'
p1634
aS'607.95'
p1635
aS'611.90'
p1636
aS'600.00'
p1637
aS'600.25'
p1638
aS'2670600'
p1639
aS'600.2'
p1640
aa(lp1641
S'2012-03-08'
p1642
aS'610.04'
p1643
aS'611.50'
p1644
aS'606.35'
p1645
aS'607.14'
p1646
aS'1345500'
p1647
aS'607.1'
p1648
aa(lp1649
S'2012-03-07'
p1650
aS'609.05'
p1651
aS'611.19'
p1652
aS'605.86'
p1653
aS'606.80'
p1654
aS'1264500'
p1655
aS'606.8'
p1656
aa(lp1657
S'2012-03-06'
p1658
aS'608.05'
p1659
aS'608.81'
p1660
aS'593.84'
p1661
aS'604.96'
p1662
aS'3174400'
p1663
aS'604.9'
p1664
aa(lp1665
S'2012-03-05'
p1666
aS'620.43'
p1667
aS'622.49'
p1668
aS'611.38'
p1669
aS'614.25'
p1670
aS'1593300'
p1671
aS'614.2'
p1672
aa(lp1673
S'2012-03-02'
p1674
aS'622.00'
p1675
aS'624.00'
p1676
aS'620.32'
p1677
aS'621.25'
p1678
aS'1573300'
p1679
aS'621.2'
p1680
aa(lp1681
S'2012-03-01'
p1682
aS'622.26'
p1683
aS'625.70'
p1684
aS'618.15'
p1685
aS'622.40'
p1686
aS'2237700'
p1687
aS'622.4'
p1688
aa(lp1689
S'2012-02-29'
p1690
aS'618.60'
p1691
aS'625.60'
p1692
aS'615.50'
p1693
aS'618.25'
p1694
aS'3136900'
p1695
aS'618.2'
p1696
aa(lp1697
S'2012-02-28'
p1698
aS'610.00'
p1699
aS'619.77'
p1700
aS'607.68'
p1701
aS'618.39'
p1702
aS'2847600'
p1703
aS'618.3'
p1704
aa(lp1705
S'2012-02-27'
p1706
aS'606.59'
p1707
aS'612.36'
p1708
aS'605.06'
p1709
aS'609.31'
p1710
aS'1813900'
p1711
aS'609.3'
p1712
aa(lp1713
S'2012-02-24'
p1714
aS'607.35'
p1715
aS'611.65'
p1716
aS'605.51'
p1717
aS'609.90'
p1718
aS'1935600'
p1719
aS'609.9'
p1720
aa(lp1721
S'2012-02-23'
p1722
aS'607.00'
p1723
aS'607.94'
p1724
aS'600.35'
p1725
aS'606.11'
p1726
aS'2055000'
p1727
aS'606.1'
p1728
aa(lp1729
S'2012-02-22'
p1730
aS'611.96'
p1731
aS'616.78'
p1732
aS'606.71'
p1733
aS'607.94'
p1734
aS'1967000'
p1735
aS'607.9'
p1736
aa(lp1737
S'2012-02-21'
p1738
aS'603.87'
p1739
aS'617.88'
p1740
aS'602.88'
p1741
aS'614.00'
p1742
aS'2480800'
p1743
aS'614.0'
p1744
aa(lp1745
S'2012-02-17'
p1746
aS'604.97'
p1747
aS'607.63'
p1748
aS'602.40'
p1749
aS'604.64'
p1750
aS'2449100'
p1751
aS'604.6'
p1752
aa(lp1753
S'2012-02-16'
p1754
aS'602.82'
p1755
aS'608.81'
p1756
aS'597.73'
p1757
aS'606.52'
p1758
aS'2530900'
p1759
aS'606.5'
p1760
aa(lp1761
S'2012-02-15'
p1762
aS'612.93'
p1763
aS'612.93'
p1764
aS'602.56'
p1765
aS'605.56'
p1766
aS'2425900'
p1767
aS'605.5'
p1768
aa(lp1769
S'2012-02-14'
p1770
aS'611.54'
p1771
aS'612.00'
p1772
aS'604.76'
p1773
aS'609.76'
p1774
aS'1803700'
p1775
aS'609.7'
p1776
aa(lp1777
S'2012-02-13'
p1778
aS'610.50'
p1779
aS'613.84'
p1780
aS'610.02'
p1781
aS'612.20'
p1782
aS'1816300'
p1783
aS'612.2'
p1784
aa(lp1785
S'2012-02-10'
p1786
aS'607.88'
p1787
aS'608.13'
p1788
aS'604.00'
p1789
aS'605.91'
p1790
aS'2325200'
p1791
aS'605.9'
p1792
aa(lp1793
S'2012-02-09'
p1794
aS'612.02'
p1795
aS'614.50'
p1796
aS'609.00'
p1797
aS'611.46'
p1798
aS'2264700'
p1799
aS'611.4'
p1800
aa(lp1801
S'2012-02-08'
p1802
aS'608.64'
p1803
aS'611.35'
p1804
aS'604.74'
p1805
aS'609.85'
p1806
aS'1836400'
p1807
aS'609.8'
p1808
aa(lp1809
S'2012-02-07'
p1810
aS'607.15'
p1811
aS'609.39'
p1812
aS'603.76'
p1813
aS'606.77'
p1814
aS'2092100'
p1815
aS'606.7'
p1816
aa(lp1817
S'2012-02-06'
p1818
aS'595.01'
p1819
aS'610.83'
p1820
aS'594.01'
p1821
aS'609.09'
p1822
aS'3679600'
p1823
aS'609.0'
p1824
aa(lp1825
S'2012-02-03'
p1826
aS'590.66'
p1827
aS'597.07'
p1828
aS'588.05'
p1829
aS'596.33'
p1830
aS'3168500'
p1831
aS'596.3'
p1832
aa(lp1833
S'2012-02-02'
p1834
aS'584.87'
p1835
aS'586.41'
p1836
aS'582.08'
p1837
aS'585.11'
p1838
aS'2414700'
p1839
aS'585.1'
p1840
aa(lp1841
S'2012-02-01'
p1842
aS'584.94'
p1843
aS'585.50'
p1844
aS'579.14'
p1845
aS'580.83'
p1846
aS'2320700'
p1847
aS'580.8'
p1848
aa(lp1849
S'2012-01-31'
p1850
aS'583.00'
p1851
aS'584.00'
p1852
aS'575.15'
p1853
aS'580.11'
p1854
aS'2142400'
p1855
aS'580.1'
p1856
aa(lp1857
S'2012-01-30'
p1858
aS'578.05'
p1859
aS'580.00'
p1860
aS'573.40'
p1861
aS'577.69'
p1862
aS'2330500'
p1863
aS'577.6'
p1864
aa(lp1865
S'2012-01-27'
p1866
aS'570.78'
p1867
aS'580.32'
p1868
aS'569.33'
p1869
aS'579.98'
p1870
aS'3617500'
p1871
aS'579.9'
p1872
aa(lp1873
S'2012-01-26'
p1874
aS'571.98'
p1875
aS'574.48'
p1876
aS'564.55'
p1877
aS'568.10'
p1878
aS'3226200'
p1879
aS'568.1'
p1880
aa(lp1881
S'2012-01-25'
p1882
aS'577.51'
p1883
aS'578.71'
p1884
aS'566.38'
p1885
aS'569.49'
p1886
aS'4987700'
p1887
aS'569.4'
p1888
aa(lp1889
S'2012-01-24'
p1890
aS'586.32'
p1891
aS'587.68'
p1892
aS'578.00'
p1893
aS'580.93'
p1894
aS'3055800'
p1895
aS'580.9'
p1896
aa(lp1897
S'2012-01-23'
p1898
aS'586.00'
p1899
aS'588.66'
p1900
aS'583.16'
p1901
aS'585.52'
p1902
aS'3412900'
p1903
aS'585.5'
p1904
aa(lp1905
S'2012-01-20'
p1906
aS'590.53'
p1907
aS'591.00'
p1908
aS'581.70'
p1909
aS'585.99'
p1910
aS'10576300'
p1911
aS'585.9'
p1912
aa(lp1913
S'2012-01-19'
p1914
aS'640.99'
p1915
aS'640.99'
p1916
aS'631.46'
p1917
aS'639.57'
p1918
aS'6305300'
p1919
aS'639.5'
p1920
aa(lp1921
S'2012-01-18'
p1922
aS'626.63'
p1923
aS'634.00'
p1924
aS'622.12'
p1925
aS'632.91'
p1926
aS'2761700'
p1927
aS'632.9'
p1928
aa(lp1929
S'2012-01-17'
p1930
aS'631.98'
p1931
aS'631.98'
p1932
aS'625.68'
p1933
aS'628.58'
p1934
aS'1909300'
p1935
aS'628.5'
p1936
aa(lp1937
S'2012-01-13'
p1938
aS'626.26'
p1939
aS'626.95'
p1940
aS'621.06'
p1941
aS'624.99'
p1942
aS'2307300'
p1943
aS'624.9'
p1944
aa(lp1945
S'2012-01-12'
p1946
aS'631.22'
p1947
aS'632.89'
p1948
aS'626.50'
p1949
aS'629.64'
p1950
aS'1875200'
p1951
aS'629.6'
p1952
aa(lp1953
S'2012-01-11'
p1954
aS'623.50'
p1955
aS'629.39'
p1956
aS'621.12'
p1957
aS'625.96'
p1958
aS'2400000'
p1959
aS'625.9'
p1960
aa(lp1961
S'2012-01-10'
p1962
aS'629.75'
p1963
aS'633.80'
p1964
aS'616.91'
p1965
aS'623.14'
p1966
aS'4395600'
p1967
aS'623.1'
p1968
aa(lp1969
S'2012-01-09'
p1970
aS'646.50'
p1971
aS'647.00'
p1972
aS'621.23'
p1973
aS'622.46'
p1974
aS'5822600'
p1975
aS'622.4'
p1976
aa(lp1977
S'2012-01-06'
p1978
aS'659.15'
p1979
aS'660.00'
p1980
aS'649.79'
p1981
aS'650.02'
p1982
aS'2692900'
p1983
aS'650.0'
p1984
aa(lp1985
S'2012-01-05'
p1986
aS'662.13'
p1987
aS'663.97'
p1988
aS'656.23'
p1989
aS'659.01'
p1990
aS'3282900'
p1991
aS'659.0'
p1992
aa(lp1993
S'2012-01-04'
p1994
aS'665.03'
p1995
aS'670.25'
p1996
aS'660.62'
p1997
aS'668.28'
p1998
aS'2864000'
p1999
aS'668.2'
p2000
aa(lp2001
S'2012-01-03'
p2002
aS'652.94'
p2003
aS'668.15'
p2004
aS'652.37'
p2005
aS'665.41'
p2006
aS'3676500'
p2007
aS'665.4'
p2008
aa(lp2009
S'2011-12-30'
p2010
aS'642.02'
p2011
aS'646.76'
p2012
aS'642.02'
p2013
aS'645.90'
p2014
aS'1782300'
p2015
aS'645.9'
p2016
aa(lp2017
S'2011-12-29'
p2018
aS'641.49'
p2019
aS'643.00'
p2020
aS'635.20'
p2021
aS'642.40'
p2022
aS'1575400'
p2023
aS'642.4'
p2024
aa(lp2025
S'2011-12-28'
p2026
aS'642.75'
p2027
aS'645.00'
p2028
aS'638.10'
p2029
aS'639.70'
p2030
aS'2127200'
p2031
aS'639.7'
p2032
aa(lp2033
S'2011-12-27'
p2034
aS'632.05'
p2035
aS'644.49'
p2036
aS'632.00'
p2037
aS'640.25'
p2038
aS'1606400'
p2039
aS'640.2'
p2040
aa(lp2041
S'2011-12-23'
p2042
aS'632.00'
p2043
aS'634.68'
p2044
aS'630.56'
p2045
aS'633.14'
p2046
aS'1453700'
p2047
aS'633.1'
p2048
aa(lp2049
S'2011-12-22'
p2050
aS'627.95'
p2051
aS'631.73'
p2052
aS'627.01'
p2053
aS'629.70'
p2054
aS'1822300'
p2055
aS'629.7'
p2056
aa(lp2057
S'2011-12-21'
p2058
aS'630.01'
p2059
aS'631.82'
p2060
aS'618.96'
p2061
aS'625.82'
p2062
aS'2497900'
p2063
aS'625.8'
p2064
aa(lp2065
S'2011-12-20'
p2066
aS'628.00'
p2067
aS'631.84'
p2068
aS'627.99'
p2069
aS'630.37'
p2070
aS'2388200'
p2071
aS'630.3'
p2072
aa(lp2073
S'2011-12-19'
p2074
aS'628.01'
p2075
aS'628.50'
p2076
aS'620.00'
p2077
aS'621.83'
p2078
aS'2143500'
p2079
aS'621.8'
p2080
aa(lp2081
S'2011-12-16'
p2082
aS'624.32'
p2083
aS'629.32'
p2084
aS'621.47'
p2085
aS'625.96'
p2086
aS'4459300'
p2087
aS'625.9'
p2088
aa(lp2089
S'2011-12-15'
p2090
aS'622.52'
p2091
aS'624.00'
p2092
aS'618.69'
p2093
aS'619.54'
p2094
aS'2408600'
p2095
aS'619.5'
p2096
aa(lp2097
S'2011-12-14'
p2098
aS'621.85'
p2099
aS'624.32'
p2100
aS'612.49'
p2101
aS'618.07'
p2102
aS'3903700'
p2103
aS'618.0'
p2104
aa(lp2105
S'2011-12-13'
p2106
aS'628.76'
p2107
aS'636.56'
p2108
aS'622.85'
p2109
aS'625.63'
p2110
aS'4028200'
p2111
aS'625.6'
p2112
aa(lp2113
S'2011-12-12'
p2114
aS'621.88'
p2115
aS'626.18'
p2116
aS'620.29'
p2117
aS'625.39'
p2118
aS'2183900'
p2119
aS'625.3'
p2120
aa(lp2121
S'2011-12-09'
p2122
aS'618.00'
p2123
aS'629.13'
p2124
aS'617.01'
p2125
aS'627.42'
p2126
aS'2766200'
p2127
aS'627.4'
p2128
aa(lp2129
S'2011-12-08'
p2130
aS'621.04'
p2131
aS'627.45'
p2132
aS'615.30'
p2133
aS'616.05'
p2134
aS'2413100'
p2135
aS'616.0'
p2136
aa(lp2137
S'2011-12-07'
p2138
aS'621.68'
p2139
aS'625.66'
p2140
aS'618.10'
p2141
aS'623.39'
p2142
aS'2257300'
p2143
aS'623.3'
p2144
aa(lp2145
S'2011-12-06'
p2146
aS'622.99'
p2147
aS'628.62'
p2148
aS'620.24'
p2149
aS'623.77'
p2150
aS'2326500'
p2151
aS'623.7'
p2152
aa(lp2153
S'2011-12-05'
p2154
aS'627.64'
p2155
aS'631.90'
p2156
aS'622.40'
p2157
aS'625.65'
p2158
aS'3197500'
p2159
aS'625.6'
p2160
aa(lp2161
S'2011-12-02'
p2162
aS'617.05'
p2163
aS'624.00'
p2164
aS'616.26'
p2165
aS'620.36'
p2166
aS'4085700'
p2167
aS'620.3'
p2168
aa(lp2169
S'2011-12-01'
p2170
aS'600.00'
p2171
aS'616.00'
p2172
aS'599.00'
p2173
aS'613.77'
p2174
aS'3620600'
p2175
aS'613.7'
p2176
aa(lp2177
S'2011-11-30'
p2178
aS'597.95'
p2179
aS'599.51'
p2180
aS'592.09'
p2181
aS'599.39'
p2182
aS'3397000'
p2183
aS'599.3'
p2184
aa(lp2185
S'2011-11-29'
p2186
aS'587.88'
p2187
aS'590.36'
p2188
aS'581.33'
p2189
aS'582.93'
p2190
aS'1831800'
p2191
aS'582.9'
p2192
aa(lp2193
S'2011-11-28'
p2194
aS'579.37'
p2195
aS'588.82'
p2196
aS'576.50'
p2197
aS'588.19'
p2198
aS'2828900'
p2199
aS'588.1'
p2200
aa(lp2201
S'2011-11-25'
p2202
aS'565.19'
p2203
aS'574.27'
p2204
aS'561.33'
p2205
aS'563.00'
p2206
aS'1562400'
p2207
aS'563.0'
p2208
aa(lp2209
S'2011-11-23'
p2210
aS'575.35'
p2211
aS'580.25'
p2212
aS'570.11'
p2213
aS'570.11'
p2214
aS'2325800'
p2215
aS'570.1'
p2216
aa(lp2217
S'2011-11-22'
p2218
aS'580.00'
p2219
aS'584.97'
p2220
aS'575.24'
p2221
aS'580.00'
p2222
aS'2405300'
p2223
aS'580.0'
p2224
aa(lp2225
S'2011-11-21'
p2226
aS'587.76'
p2227
aS'588.50'
p2228
aS'572.09'
p2229
aS'580.94'
p2230
aS'3001300'
p2231
aS'580.9'
p2232
aa(lp2233
S'2011-11-18'
p2234
aS'602.00'
p2235
aS'604.50'
p2236
aS'593.75'
p2237
aS'594.88'
p2238
aS'3287700'
p2239
aS'594.8'
p2240
aa(lp2241
S'2011-11-17'
p2242
aS'610.05'
p2243
aS'612.29'
p2244
aS'596.78'
p2245
aS'600.87'
p2246
aS'3493300'
p2247
aS'600.8'
p2248
aa(lp2249
S'2011-11-16'
p2250
aS'612.08'
p2251
aS'618.30'
p2252
aS'610.61'
p2253
aS'611.47'
p2254
aS'2608500'
p2255
aS'611.4'
p2256
aa(lp2257
S'2011-11-15'
p2258
aS'612.80'
p2259
aS'618.08'
p2260
aS'610.50'
p2261
aS'616.56'
p2262
aS'2676000'
p2263
aS'616.5'
p2264
aa(lp2265
S'2011-11-14'
p2266
aS'608.00'
p2267
aS'618.08'
p2268
aS'607.78'
p2269
aS'613.00'
p2270
aS'3188700'
p2271
aS'613.0'
p2272
aa(lp2273
S'2011-11-11'
p2274
aS'601.30'
p2275
aS'612.09'
p2276
aS'598.60'
p2277
aS'608.35'
p2278
aS'3977000'
p2279
aS'608.3'
p2280
aa(lp2281
S'2011-11-10'
p2282
aS'605.93'
p2283
aS'605.95'
p2284
aS'591.56'
p2285
aS'595.08'
p2286
aS'2868400'
p2287
aS'595.0'
p2288
aa(lp2289
S'2011-11-09'
p2290
aS'604.26'
p2291
aS'609.39'
p2292
aS'598.66'
p2293
aS'600.95'
p2294
aS'3711000'
p2295
aS'600.9'
p2296
aa(lp2297
S'2011-11-08'
p2298
aS'609.00'
p2299
aS'614.37'
p2300
aS'603.60'
p2301
aS'612.34'
p2302
aS'3029400'
p2303
aS'612.3'
p2304
aa(lp2305
S'2011-11-07'
p2306
aS'593.32'
p2307
aS'608.78'
p2308
aS'592.23'
p2309
aS'608.33'
p2310
aS'3357400'
p2311
aS'608.3'
p2312
aa(lp2313
S'2011-11-04'
p2314
aS'593.50'
p2315
aS'599.74'
p2316
aS'592.43'
p2317
aS'596.14'
p2318
aS'2834800'
p2319
aS'596.1'
p2320
aa(lp2321
S'2011-11-03'
p2322
aS'587.00'
p2323
aS'597.50'
p2324
aS'583.72'
p2325
aS'597.50'
p2326
aS'2669800'
p2327
aS'597.5'
p2328
aa(lp2329
S'2011-11-02'
p2330
aS'584.90'
p2331
aS'587.96'
p2332
aS'580.48'
p2333
aS'584.82'
p2334
aS'2120900'
p2335
aS'584.8'
p2336
aa(lp2337
S'2011-11-01'
p2338
aS'580.10'
p2339
aS'585.51'
p2340
aS'576.75'
p2341
aS'578.65'
p2342
aS'3125100'
p2343
aS'578.6'
p2344
aa(lp2345
S'2011-10-31'
p2346
aS'595.09'
p2347
aS'599.69'
p2348
aS'591.67'
p2349
aS'592.64'
p2350
aS'2557800'
p2351
aS'592.6'
p2352
aa(lp2353
S'2011-10-28'
p2354
aS'594.52'
p2355
aS'602.30'
p2356
aS'594.25'
p2357
aS'600.14'
p2358
aS'2508000'
p2359
aS'600.1'
p2360
aa(lp2361
S'2011-10-27'
p2362
aS'598.42'
p2363
aS'602.70'
p2364
aS'593.30'
p2365
aS'598.67'
p2366
aS'3780300'
p2367
aS'598.6'
p2368
aa(lp2369
S'2011-10-26'
p2370
aS'589.55'
p2371
aS'590.18'
p2372
aS'572.86'
p2373
aS'586.31'
p2374
aS'2873100'
p2375
aS'586.3'
p2376
aa(lp2377
S'2011-10-25'
p2378
aS'593.10'
p2379
aS'595.00'
p2380
aS'582.85'
p2381
aS'583.16'
p2382
aS'2540500'
p2383
aS'583.1'
p2384
aa(lp2385
S'2011-10-24'
p2386
aS'586.72'
p2387
aS'599.97'
p2388
aS'586.50'
p2389
aS'596.42'
p2390
aS'3426900'
p2391
aS'596.4'
p2392
aa(lp2393
S'2011-10-21'
p2394
aS'589.51'
p2395
aS'592.75'
p2396
aS'586.70'
p2397
aS'590.49'
p2398
aS'3391000'
p2399
aS'590.4'
p2400
aa(lp2401
S'2011-10-20'
p2402
aS'581.90'
p2403
aS'588.89'
p2404
aS'579.51'
p2405
aS'583.67'
p2406
aS'3379000'
p2407
aS'583.6'
p2408
aa(lp2409
S'2011-10-19'
p2410
aS'587.34'
p2411
aS'592.06'
p2412
aS'579.22'
p2413
aS'580.70'
p2414
aS'2931500'
p2415
aS'580.7'
p2416
aa(lp2417
S'2011-10-18'
p2418
aS'580.19'
p2419
aS'592.56'
p2420
aS'577.40'
p2421
aS'590.51'
p2422
aS'3800800'
p2423
aS'590.5'
p2424
aa(lp2425
S'2011-10-17'
p2426
aS'583.72'
p2427
aS'591.83'
p2428
aS'578.00'
p2429
aS'582.41'
p2430
aS'4008200'
p2431
aS'582.4'
p2432
aa(lp2433
S'2011-10-14'
p2434
aS'599.47'
p2435
aS'599.60'
p2436
aS'587.57'
p2437
aS'591.68'
p2438
aS'8529900'
p2439
aS'591.6'
p2440
aa(lp2441
S'2011-10-13'
p2442
aS'550.03'
p2443
aS'559.00'
p2444
aS'548.02'
p2445
aS'558.99'
p2446
aS'5687600'
p2447
aS'558.9'
p2448
aa(lp2449
S'2011-10-12'
p2450
aS'548.13'
p2451
aS'555.23'
p2452
aS'544.63'
p2453
aS'548.50'
p2454
aS'3177800'
p2455
aS'548.5'
p2456
aa(lp2457
S'2011-10-11'
p2458
aS'533.46'
p2459
aS'546.80'
p2460
aS'533.46'
p2461
aS'543.18'
p2462
aS'2853400'
p2463
aS'543.1'
p2464
aa(lp2465
S'2011-10-10'
p2466
aS'525.18'
p2467
aS'537.47'
p2468
aS'523.20'
p2469
aS'537.17'
p2470
aS'2322200'
p2471
aS'537.1'
p2472
aa(lp2473
S'2011-10-07'
p2474
aS'516.83'
p2475
aS'520.50'
p2476
aS'510.30'
p2477
aS'515.12'
p2478
aS'2855900'
p2479
aS'515.1'
p2480
aa(lp2481
S'2011-10-06'
p2482
aS'507.50'
p2483
aS'515.23'
p2484
aS'502.60'
p2485
aS'514.71'
p2486
aS'3424300'
p2487
aS'514.7'
p2488
aa(lp2489
S'2011-10-05'
p2490
aS'496.35'
p2491
aS'507.80'
p2492
aS'480.77'
p2493
aS'504.70'
p2494
aS'4534100'
p2495
aS'504.7'
p2496
aa(lp2497
S'2011-10-04'
p2498
aS'490.03'
p2499
aS'503.44'
p2500
aS'480.60'
p2501
aS'501.90'
p2502
aS'4158800'
p2503
aS'501.9'
p2504
aa(lp2505
S'2011-10-03'
p2506
aS'509.85'
p2507
aS'512.00'
p2508
aS'495.00'
p2509
aS'495.52'
p2510
aS'4474400'
p2511
aS'495.5'
p2512
aa(lp2513
S'2011-09-30'
p2514
aS'520.21'
p2515
aS'524.00'
p2516
aS'514.38'
p2517
aS'515.04'
p2518
aS'2723600'
p2519
aS'515.0'
p2520
aa(lp2521
S'2011-09-29'
p2522
aS'536.04'
p2523
aS'537.30'
p2524
aS'519.41'
p2525
aS'527.50'
p2526
aS'2906600'
p2527
aS'527.5'
p2528
aa(lp2529
S'2011-09-28'
p2530
aS'541.50'
p2531
aS'544.02'
p2532
aS'527.70'
p2533
aS'528.84'
p2534
aS'2263300'
p2535
aS'528.8'
p2536
aa(lp2537
S'2011-09-27'
p2538
aS'538.20'
p2539
aS'547.05'
p2540
aS'536.05'
p2541
aS'539.34'
p2542
aS'3010900'
p2543
aS'539.3'
p2544
aa(lp2545
S'2011-09-26'
p2546
aS'527.25'
p2547
aS'532.93'
p2548
aS'513.25'
p2549
aS'531.89'
p2550
aS'2634200'
p2551
aS'531.8'
p2552
aa(lp2553
S'2011-09-23'
p2554
aS'516.56'
p2555
aS'526.42'
p2556
aS'514.50'
p2557
aS'525.51'
p2558
aS'2777300'
p2559
aS'525.5'
p2560
aa(lp2561
S'2011-09-22'
p2562
aS'526.25'
p2563
aS'528.78'
p2564
aS'514.00'
p2565
aS'520.66'
p2566
aS'4400300'
p2567
aS'520.6'
p2568
aa(lp2569
S'2011-09-21'
p2570
aS'547.69'
p2571
aS'555.00'
p2572
aS'538.86'
p2573
aS'539.20'
p2574
aS'2514300'
p2575
aS'539.2'
p2576
aa(lp2577
S'2011-09-20'
p2578
aS'549.40'
p2579
aS'558.52'
p2580
aS'542.67'
p2581
aS'546.63'
p2582
aS'2779100'
p2583
aS'546.6'
p2584
aa(lp2585
S'2011-09-19'
p2586
aS'540.35'
p2587
aS'549.90'
p2588
aS'535.38'
p2589
aS'546.67'
p2590
aS'2468400'
p2591
aS'546.6'
p2592
aa(lp2593
S'2011-09-16'
p2594
aS'544.80'
p2595
aS'546.84'
p2596
aS'543.14'
p2597
aS'546.68'
p2598
aS'3534300'
p2599
aS'546.6'
p2600
aa(lp2601
S'2011-09-15'
p2602
aS'535.50'
p2603
aS'544.98'
p2604
aS'534.56'
p2605
aS'542.56'
p2606
aS'2960800'
p2607
aS'542.5'
p2608
aa(lp2609
S'2011-09-14'
p2610
aS'532.59'
p2611
aS'536.95'
p2612
aS'525.82'
p2613
aS'532.07'
p2614
aS'2694400'
p2615
aS'532.0'
p2616
aa(lp2617
S'2011-09-13'
p2618
aS'532.00'
p2619
aS'533.88'
p2620
aS'523.40'
p2621
aS'529.52'
p2622
aS'2354200'
p2623
aS'529.5'
p2624
aa(lp2625
S'2011-09-12'
p2626
aS'517.96'
p2627
aS'531.99'
p2628
aS'517.50'
p2629
aS'530.12'
p2630
aS'2670400'
p2631
aS'530.1'
p2632
aa(lp2633
S'2011-09-09'
p2634
aS'531.40'
p2635
aS'534.65'
p2636
aS'521.19'
p2637
aS'524.85'
p2638
aS'3268800'
p2639
aS'524.8'
p2640
aa(lp2641
S'2011-09-08'
p2642
aS'533.80'
p2643
aS'539.10'
p2644
aS'531.90'
p2645
aS'534.96'
p2646
aS'2380500'
p2647
aS'534.9'
p2648
aa(lp2649
S'2011-09-07'
p2650
aS'530.45'
p2651
aS'535.94'
p2652
aS'527.40'
p2653
aS'534.03'
p2654
aS'2755800'
p2655
aS'534.0'
p2656
aa(lp2657
S'2011-09-06'
p2658
aS'510.80'
p2659
aS'522.76'
p2660
aS'510.50'
p2661
aS'522.18'
p2662
aS'2715800'
p2663
aS'522.1'
p2664
aa(lp2665
S'2011-09-02'
p2666
aS'524.47'
p2667
aS'527.92'
p2668
aS'520.73'
p2669
aS'524.84'
p2670
aS'2401200'
p2671
aS'524.8'
p2672
aa(lp2673
S'2011-09-01'
p2674
aS'540.75'
p2675
aS'543.83'
p2676
aS'531.22'
p2677
aS'532.50'
p2678
aS'2415500'
p2679
aS'532.5'
p2680
aa(lp2681
S'2011-08-31'
p2682
aS'544.74'
p2683
aS'546.30'
p2684
aS'536.00'
p2685
aS'540.96'
p2686
aS'2693300'
p2687
aS'540.9'
p2688
aa(lp2689
S'2011-08-30'
p2690
aS'538.19'
p2691
aS'542.99'
p2692
aS'530.81'
p2693
aS'540.70'
p2694
aS'2989000'
p2695
aS'540.7'
p2696
aa(lp2697
S'2011-08-29'
p2698
aS'534.56'
p2699
aS'539.45'
p2700
aS'533.56'
p2701
aS'539.08'
p2702
aS'2335800'
p2703
aS'539.0'
p2704
aa(lp2705
S'2011-08-26'
p2706
aS'519.99'
p2707
aS'530.45'
p2708
aS'513.14'
p2709
aS'526.86'
p2710
aS'3596300'
p2711
aS'526.8'
p2712
aa(lp2713
S'2011-08-25'
p2714
aS'530.38'
p2715
aS'537.27'
p2716
aS'518.30'
p2717
aS'520.04'
p2718
aS'3293000'
p2719
aS'520.0'
p2720
aa(lp2721
S'2011-08-24'
p2722
aS'519.33'
p2723
aS'530.00'
p2724
aS'517.23'
p2725
aS'523.29'
p2726
aS'3594500'
p2727
aS'523.2'
p2728
aa(lp2729
S'2011-08-23'
p2730
aS'503.50'
p2731
aS'521.41'
p2732
aS'499.06'
p2733
aS'518.82'
p2734
aS'4346800'
p2735
aS'518.8'
p2736
aa(lp2737
S'2011-08-22'
p2738
aS'504.00'
p2739
aS'507.00'
p2740
aS'494.53'
p2741
aS'498.17'
p2742
aS'4905900'
p2743
aS'498.1'
p2744
aa(lp2745
S'2011-08-19'
p2746
aS'499.34'
p2747
aS'514.87'
p2748
aS'490.86'
p2749
aS'490.92'
p2750
aS'5410000'
p2751
aS'490.9'
p2752
aa(lp2753
S'2011-08-18'
p2754
aS'523.47'
p2755
aS'524.89'
p2756
aS'500.49'
p2757
aS'504.88'
p2758
aS'6290700'
p2759
aS'504.8'
p2760
aa(lp2761
S'2011-08-17'
p2762
aS'540.03'
p2763
aS'543.69'
p2764
aS'530.77'
p2765
aS'533.15'
p2766
aS'4079100'
p2767
aS'533.1'
p2768
aa(lp2769
S'2011-08-16'
p2770
aS'552.43'
p2771
aS'552.44'
p2772
aS'530.30'
p2773
aS'539.00'
p2774
aS'6939400'
p2775
aS'539.0'
p2776
aa(lp2777
S'2011-08-15'
p2778
aS'553.43'
p2779
aS'564.99'
p2780
aS'546.05'
p2781
aS'557.23'
p2782
aS'7144900'
p2783
aS'557.2'
p2784
aa(lp2785
S'2011-08-12'
p2786
aS'569.50'
p2787
aS'570.50'
p2788
aS'560.40'
p2789
aS'563.77'
p2790
aS'3154300'
p2791
aS'563.7'
p2792
aa(lp2793
S'2011-08-11'
p2794
aS'553.82'
p2795
aS'568.50'
p2796
aS'548.41'
p2797
aS'562.13'
p2798
aS'4830600'
p2799
aS'562.1'
p2800
aa(lp2801
S'2011-08-10'
p2802
aS'561.38'
p2803
aS'564.12'
p2804
aS'547.73'
p2805
aS'549.01'
p2806
aS'5369600'
p2807
aS'549.0'
p2808
aa(lp2809
S'2011-08-09'
p2810
aS'561.00'
p2811
aS'574.61'
p2812
aS'541.01'
p2813
aS'573.41'
p2814
aS'6469700'
p2815
aS'573.4'
p2816
aa(lp2817
S'2011-08-08'
p2818
aS'562.98'
p2819
aS'569.00'
p2820
aS'544.35'
p2821
aS'546.02'
p2822
aS'7496600'
p2823
aS'546.0'
p2824
aa(lp2825
S'2011-08-05'
p2826
aS'582.54'
p2827
aS'590.00'
p2828
aS'562.00'
p2829
aS'579.04'
p2830
aS'5929100'
p2831
aS'579.0'
p2832
aa(lp2833
S'2011-08-04'
p2834
aS'594.50'
p2835
aS'598.85'
p2836
aS'577.47'
p2837
aS'577.52'
p2838
aS'4914600'
p2839
aS'577.5'
p2840
aa(lp2841
S'2011-08-03'
p2842
aS'594.27'
p2843
aS'603.00'
p2844
aS'583.63'
p2845
aS'601.17'
p2846
aS'3825700'
p2847
aS'601.1'
p2848
aa(lp2849
S'2011-08-02'
p2850
aS'606.00'
p2851
aS'609.67'
p2852
aS'591.57'
p2853
aS'592.40'
p2854
aS'3200600'
p2855
aS'592.4'
p2856
aa(lp2857
S'2011-08-01'
p2858
aS'611.22'
p2859
aS'615.50'
p2860
aS'599.18'
p2861
aS'606.77'
p2862
aS'3966100'
p2863
aS'606.7'
p2864
aa(lp2865
S'2011-07-29'
p2866
aS'604.23'
p2867
aS'614.96'
p2868
aS'603.69'
p2869
aS'603.69'
p2870
aS'4137400'
p2871
aS'603.6'
p2872
aa(lp2873
S'2011-07-28'
p2874
aS'605.19'
p2875
aS'615.98'
p2876
aS'603.00'
p2877
aS'610.94'
p2878
aS'3108400'
p2879
aS'610.9'
p2880
aa(lp2881
S'2011-07-27'
p2882
aS'617.18'
p2883
aS'620.95'
p2884
aS'604.75'
p2885
aS'607.22'
p2886
aS'3934400'
p2887
aS'607.2'
p2888
aa(lp2889
S'2011-07-26'
p2890
aS'618.05'
p2891
aS'627.50'
p2892
aS'617.22'
p2893
aS'622.52'
p2894
aS'2342900'
p2895
aS'622.5'
p2896
aa(lp2897
S'2011-07-25'
p2898
aS'613.36'
p2899
aS'625.41'
p2900
aS'613.00'
p2901
aS'618.98'
p2902
aS'3131600'
p2903
aS'618.9'
p2904
aa(lp2905
S'2011-07-22'
p2906
aS'605.39'
p2907
aS'619.50'
p2908
aS'604.27'
p2909
aS'618.23'
p2910
aS'3528200'
p2911
aS'618.2'
p2912
aa(lp2913
S'2011-07-21'
p2914
aS'594.03'
p2915
aS'608.06'
p2916
aS'594.01'
p2917
aS'606.99'
p2918
aS'3469500'
p2919
aS'606.9'
p2920
aa(lp2921
S'2011-07-20'
p2922
aS'602.18'
p2923
aS'602.83'
p2924
aS'595.35'
p2925
aS'595.35'
p2926
aS'2227800'
p2927
aS'595.3'
p2928
aa(lp2929
S'2011-07-19'
p2930
aS'596.14'
p2931
aS'604.68'
p2932
aS'595.53'
p2933
aS'602.55'
p2934
aS'2967500'
p2935
aS'602.5'
p2936
aa(lp2937
S'2011-07-18'
p2938
aS'592.49'
p2939
aS'602.05'
p2940
aS'592.00'
p2941
aS'594.94'
p2942
aS'4468300'
p2943
aS'594.9'
p2944
aa(lp2945
S'2011-07-15'
p2946
aS'597.50'
p2947
aS'600.25'
p2948
aS'588.16'
p2949
aS'597.62'
p2950
aS'13732100'
p2951
aS'597.6'
p2952
aa(lp2953
S'2011-07-14'
p2954
aS'539.12'
p2955
aS'542.00'
p2956
aS'526.73'
p2957
aS'528.94'
p2958
aS'6649500'
p2959
aS'528.9'
p2960
aa(lp2961
S'2011-07-13'
p2962
aS'537.00'
p2963
aS'544.00'
p2964
aS'536.48'
p2965
aS'538.26'
p2966
aS'2790200'
p2967
aS'538.2'
p2968
aa(lp2969
S'2011-07-12'
p2970
aS'528.16'
p2971
aS'539.42'
p2972
aS'526.00'
p2973
aS'534.01'
p2974
aS'2841200'
p2975
aS'534.0'
p2976
aa(lp2977
S'2011-07-11'
p2978
aS'528.18'
p2979
aS'535.98'
p2980
aS'525.50'
p2981
aS'527.28'
p2982
aS'2839300'
p2983
aS'527.2'
p2984
aa(lp2985
S'2011-07-08'
p2986
aS'532.95'
p2987
aS'537.65'
p2988
aS'527.27'
p2989
aS'531.99'
p2990
aS'4770200'
p2991
aS'531.9'
p2992
aa(lp2993
S'2011-07-07'
p2994
aS'541.00'
p2995
aS'550.68'
p2996
aS'535.88'
p2997
aS'546.60'
p2998
aS'3935500'
p2999
aS'546.6'
p3000
aa(lp3001
S'2011-07-06'
p3002
aS'533.50'
p3003
aS'538.51'
p3004
aS'533.04'
p3005
aS'535.36'
p3006
aS'2695600'
p3007
aS'535.3'
p3008
aa(lp3009
S'2011-07-05'
p3010
aS'525.30'
p3011
aS'535.40'
p3012
aS'525.30'
p3013
aS'532.44'
p3014
aS'3849200'
p3015
aS'532.4'
p3016
aa(lp3017
S'2011-07-01'
p3018
aS'506.74'
p3019
aS'521.18'
p3020
aS'506.38'
p3021
aS'521.03'
p3022
aS'3636700'
p3023
aS'521.0'
p3024
aa(lp3025
S'2011-06-30'
p3026
aS'501.99'
p3027
aS'506.67'
p3028
aS'501.50'
p3029
aS'506.38'
p3030
aS'2428400'
p3031
aS'506.3'
p3032
aa(lp3033
S'2011-06-29'
p3034
aS'496.54'
p3035
aS'500.25'
p3036
aS'492.38'
p3037
aS'497.57'
p3038
aS'2343000'
p3039
aS'497.5'
p3040
aa(lp3041
S'2011-06-28'
p3042
aS'484.02'
p3043
aS'496.21'
p3044
aS'484.02'
p3045
aS'493.65'
p3046
aS'2715100'
p3047
aS'493.6'
p3048
aa(lp3049
S'2011-06-27'
p3050
aS'474.00'
p3051
aS'488.40'
p3052
aS'473.60'
p3053
aS'482.80'
p3054
aS'3444700'
p3055
aS'482.8'
p3056
aa(lp3057
S'2011-06-24'
p3058
aS'480.68'
p3059
aS'480.75'
p3060
aS'473.02'
p3061
aS'474.88'
p3062
aS'3805600'
p3063
aS'474.8'
p3064
aa(lp3065
S'2011-06-23'
p3066
aS'482.13'
p3067
aS'482.86'
p3068
aS'473.73'
p3069
aS'480.22'
p3070
aS'4801700'
p3071
aS'480.2'
p3072
aa(lp3073
S'2011-06-22'
p3074
aS'491.45'
p3075
aS'492.35'
p3076
aS'486.73'
p3077
aS'487.01'
p3078
aS'2407100'
p3079
aS'487.0'
p3080
aa(lp3081
S'2011-06-21'
p3082
aS'487.19'
p3083
aS'493.94'
p3084
aS'484.73'
p3085
aS'493.00'
p3086
aS'2765400'
p3087
aS'493.0'
p3088
aa(lp3089
S'2011-06-20'
p3090
aS'485.00'
p3091
aS'486.23'
p3092
aS'479.23'
p3093
aS'484.58'
p3094
aS'3028600'
p3095
aS'484.5'
p3096
aa(lp3097
S'2011-06-17'
p3098
aS'506.18'
p3099
aS'506.69'
p3100
aS'484.80'
p3101
aS'485.02'
p3102
aS'5245400'
p3103
aS'485.0'
p3104
aa(lp3105
S'2011-06-16'
p3106
aS'502.81'
p3107
aS'506.57'
p3108
aS'496.67'
p3109
aS'500.37'
p3110
aS'2757000'
p3111
aS'500.3'
p3112
aa(lp3113
S'2011-06-15'
p3114
aS'505.03'
p3115
aS'508.35'
p3116
aS'500.61'
p3117
aS'502.95'
p3118
aS'2073300'
p3119
aS'502.9'
p3120
aa(lp3121
S'2011-06-14'
p3122
aS'508.15'
p3123
aS'514.08'
p3124
aS'506.99'
p3125
aS'508.37'
p3126
aS'2341500'
p3127
aS'508.3'
p3128
aa(lp3129
S'2011-06-13'
p3130
aS'510.00'
p3131
aS'510.20'
p3132
aS'502.17'
p3133
aS'504.73'
p3134
aS'2427300'
p3135
aS'504.7'
p3136
aa(lp3137
S'2011-06-10'
p3138
aS'514.08'
p3139
aS'516.69'
p3140
aS'509.29'
p3141
aS'509.51'
p3142
aS'2439900'
p3143
aS'509.5'
p3144
aa(lp3145
S'2011-06-09'
p3146
aS'520.00'
p3147
aS'520.00'
p3148
aS'515.64'
p3149
aS'516.73'
p3150
aS'1689100'
p3151
aS'516.7'
p3152
aa(lp3153
S'2011-06-08'
p3154
aS'516.53'
p3155
aS'521.24'
p3156
aS'515.78'
p3157
aS'519.17'
p3158
aS'1653400'
p3159
aS'519.1'
p3160
aa(lp3161
S'2011-06-07'
p3162
aS'522.89'
p3163
aS'524.63'
p3164
aS'518.99'
p3165
aS'519.03'
p3166
aS'1907600'
p3167
aS'519.0'
p3168
aa(lp3169
S'2011-06-06'
p3170
aS'523.54'
p3171
aS'526.82'
p3172
aS'519.25'
p3173
aS'521.06'
p3174
aS'1942100'
p3175
aS'521.0'
p3176
aa(lp3177
S'2011-06-03'
p3178
aS'522.00'
p3179
aS'527.60'
p3180
aS'521.50'
p3181
aS'523.08'
p3182
aS'1748500'
p3183
aS'523.0'
p3184
aa(lp3185
S'2011-06-02'
p3186
aS'527.57'
p3187
aS'530.30'
p3188
aS'522.48'
p3189
aS'528.06'
p3190
aS'2204500'
p3191
aS'528.0'
p3192
aa(lp3193
S'2011-06-01'
p3194
aS'528.04'
p3195
aS'533.20'
p3196
aS'525.31'
p3197
aS'525.60'
p3198
aS'2955900'
p3199
aS'525.6'
p3200
aa(lp3201
S'2011-05-31'
p3202
aS'525.00'
p3203
aS'529.05'
p3204
aS'523.50'
p3205
aS'529.02'
p3206
aS'2687300'
p3207
aS'529.0'
p3208
aa(lp3209
S'2011-05-27'
p3210
aS'518.48'
p3211
aS'521.79'
p3212
aS'516.30'
p3213
aS'520.90'
p3214
aS'1745800'
p3215
aS'520.9'
p3216
aa(lp3217
S'2011-05-26'
p3218
aS'517.70'
p3219
aS'522.12'
p3220
aS'515.00'
p3221
aS'518.13'
p3222
aS'2118500'
p3223
aS'518.1'
p3224
aa(lp3225
S'2011-05-25'
p3226
aS'519.67'
p3227
aS'522.77'
p3228
aS'517.25'
p3229
aS'519.67'
p3230
aS'1301600'
p3231
aS'519.6'
p3232
aa(lp3233
S'2011-05-24'
p3234
aS'520.37'
p3235
aS'523.96'
p3236
aS'518.15'
p3237
aS'518.26'
p3238
aS'1900000'
p3239
aS'518.2'
p3240
aa(lp3241
S'2011-05-23'
p3242
aS'516.60'
p3243
aS'520.00'
p3244
aS'513.40'
p3245
aS'518.39'
p3246
aS'2300000'
p3247
aS'518.3'
p3248
aa(lp3249
S'2011-05-20'
p3250
aS'531.80'
p3251
aS'531.99'
p3252
aS'523.13'
p3253
aS'524.03'
p3254
aS'2317500'
p3255
aS'524.0'
p3256
aa(lp3257
S'2011-05-19'
p3258
aS'532.73'
p3259
aS'536.54'
p3260
aS'529.72'
p3261
aS'531.25'
p3262
aS'2468700'
p3263
aS'531.2'
p3264
aa(lp3265
S'2011-05-18'
p3266
aS'529.54'
p3267
aS'530.33'
p3268
aS'525.70'
p3269
aS'529.81'
p3270
aS'1953200'
p3271
aS'529.8'
p3272
aa(lp3273
S'2011-05-17'
p3274
aS'515.43'
p3275
aS'531.22'
p3276
aS'515.03'
p3277
aS'530.46'
p3278
aS'3303600'
p3279
aS'530.4'
p3280
aa(lp3281
S'2011-05-16'
p3282
aS'526.31'
p3283
aS'527.27'
p3284
aS'516.40'
p3285
aS'518.42'
p3286
aS'2958200'
p3287
aS'518.4'
p3288
aa(lp3289
S'2011-05-13'
p3290
aS'534.61'
p3291
aS'535.92'
p3292
aS'529.05'
p3293
aS'529.55'
p3294
aS'2108700'
p3295
aS'529.5'
p3296
aa(lp3297
S'2011-05-12'
p3298
aS'535.24'
p3299
aS'536.94'
p3300
aS'530.91'
p3301
aS'535.05'
p3302
aS'1448300'
p3303
aS'535.0'
p3304
aa(lp3305
S'2011-05-11'
p3306
aS'540.14'
p3307
aS'543.55'
p3308
aS'533.69'
p3309
aS'535.45'
p3310
aS'2338800'
p3311
aS'535.4'
p3312
aa(lp3313
S'2011-05-10'
p3314
aS'540.00'
p3315
aS'544.43'
p3316
aS'537.54'
p3317
aS'542.66'
p3318
aS'2042900'
p3319
aS'542.6'
p3320
aa(lp3321
S'2011-05-09'
p3322
aS'535.00'
p3323
aS'538.49'
p3324
aS'531.10'
p3325
aS'537.68'
p3326
aS'1948700'
p3327
aS'537.6'
p3328
aa(lp3329
S'2011-05-06'
p3330
aS'538.15'
p3331
aS'541.46'
p3332
aS'535.18'
p3333
aS'535.30'
p3334
aS'2056100'
p3335
aS'535.3'
p3336
aa(lp3337
S'2011-05-05'
p3338
aS'533.86'
p3339
aS'539.42'
p3340
aS'531.50'
p3341
aS'534.27'
p3342
aS'1997800'
p3343
aS'534.2'
p3344
aa(lp3345
S'2011-05-04'
p3346
aS'535.17'
p3347
aS'539.00'
p3348
aS'533.02'
p3349
aS'535.79'
p3350
aS'2117000'
p3351
aS'535.7'
p3352
aa(lp3353
S'2011-05-03'
p3354
aS'537.13'
p3355
aS'542.01'
p3356
aS'529.63'
p3357
aS'533.89'
p3358
aS'2081500'
p3359
aS'533.8'
p3360
aa(lp3361
S'2011-05-02'
p3362
aS'545.70'
p3363
aS'545.73'
p3364
aS'537.12'
p3365
aS'538.56'
p3366
aS'2133700'
p3367
aS'538.5'
p3368
aa(lp3369
S'2011-04-29'
p3370
aS'540.00'
p3371
aS'544.10'
p3372
aS'538.51'
p3373
aS'544.10'
p3374
aS'4228500'
p3375
aS'544.1'
p3376
aa(lp3377
S'2011-04-28'
p3378
aS'538.06'
p3379
aS'539.25'
p3380
aS'534.08'
p3381
aS'537.97'
p3382
aS'2000000'
p3383
aS'537.9'
p3384
aa(lp3385
S'2011-04-27'
p3386
aS'538.00'
p3387
aS'538.11'
p3388
aS'534.35'
p3389
aS'537.76'
p3390
aS'2298400'
p3391
aS'537.7'
p3392
aa(lp3393
S'2011-04-26'
p3394
aS'526.52'
p3395
aS'537.44'
p3396
aS'525.21'
p3397
aS'532.82'
p3398
aS'3500000'
p3399
aS'532.8'
p3400
aa(lp3401
S'2011-04-25'
p3402
aS'525.25'
p3403
aS'527.00'
p3404
aS'522.01'
p3405
aS'525.05'
p3406
aS'1630800'
p3407
aS'525.0'
p3408
aa(lp3409
S'2011-04-21'
p3410
aS'527.49'
p3411
aS'528.28'
p3412
aS'522.39'
p3413
aS'525.10'
p3414
aS'2470100'
p3415
aS'525.1'
p3416
aa(lp3417
S'2011-04-20'
p3418
aS'525.90'
p3419
aS'526.82'
p3420
aS'521.39'
p3421
aS'525.73'
p3422
aS'3060000'
p3423
aS'525.7'
p3424
aa(lp3425
S'2011-04-19'
p3426
aS'529.95'
p3427
aS'530.88'
p3428
aS'520.90'
p3429
aS'521.53'
p3430
aS'2684100'
p3431
aS'521.5'
p3432
aa(lp3433
S'2011-04-18'
p3434
aS'526.42'
p3435
aS'527.66'
p3436
aS'519.00'
p3437
aS'526.84'
p3438
aS'5039800'
p3439
aS'526.8'
p3440
aa(lp3441
S'2011-04-15'
p3442
aS'545.29'
p3443
aS'545.75'
p3444
aS'530.06'
p3445
aS'530.70'
p3446
aS'14043700'
p3447
aS'530.7'
p3448
aa(lp3449
S'2011-04-14'
p3450
aS'575.19'
p3451
aS'579.45'
p3452
aS'572.10'
p3453
aS'578.51'
p3454
aS'5456300'
p3455
aS'578.5'
p3456
aa(lp3457
S'2011-04-13'
p3458
aS'575.51'
p3459
aS'577.60'
p3460
aS'571.75'
p3461
aS'576.28'
p3462
aS'2069400'
p3463
aS'576.2'
p3464
aa(lp3465
S'2011-04-12'
p3466
aS'575.00'
p3467
aS'576.91'
p3468
aS'568.05'
p3469
aS'570.61'
p3470
aS'2085600'
p3471
aS'570.6'
p3472
aa(lp3473
S'2011-04-11'
p3474
aS'576.20'
p3475
aS'578.10'
p3476
aS'573.00'
p3477
aS'577.37'
p3478
aS'1858200'
p3479
aS'577.3'
p3480
aa(lp3481
S'2011-04-08'
p3482
aS'584.89'
p3483
aS'584.89'
p3484
aS'578.06'
p3485
aS'578.16'
p3486
aS'1901800'
p3487
aS'578.1'
p3488
aa(lp3489
S'2011-04-07'
p3490
aS'575.73'
p3491
aS'580.64'
p3492
aS'574.19'
p3493
aS'580.00'
p3494
aS'2531500'
p3495
aS'580.0'
p3496
aa(lp3497
S'2011-04-06'
p3498
aS'572.18'
p3499
aS'575.16'
p3500
aS'568.00'
p3501
aS'574.18'
p3502
aS'2668300'
p3503
aS'574.1'
p3504
aa(lp3505
S'2011-04-05'
p3506
aS'581.08'
p3507
aS'581.49'
p3508
aS'565.68'
p3509
aS'569.09'
p3510
aS'6047500'
p3511
aS'569.0'
p3512
aa(lp3513
S'2011-04-04'
p3514
aS'593.00'
p3515
aS'594.74'
p3516
aS'583.10'
p3517
aS'587.68'
p3518
aS'2054500'
p3519
aS'587.6'
p3520
aa(lp3521
S'2011-04-01'
p3522
aS'588.76'
p3523
aS'595.19'
p3524
aS'588.76'
p3525
aS'591.80'
p3526
aS'2613200'
p3527
aS'591.8'
p3528
aa(lp3529
S'2011-03-31'
p3530
aS'583.00'
p3531
aS'588.16'
p3532
aS'581.74'
p3533
aS'586.76'
p3534
aS'2029400'
p3535
aS'586.7'
p3536
aa(lp3537
S'2011-03-30'
p3538
aS'584.38'
p3539
aS'585.50'
p3540
aS'580.58'
p3541
aS'581.84'
p3542
aS'1422300'
p3543
aS'581.8'
p3544
aa(lp3545
S'2011-03-29'
p3546
aS'576.00'
p3547
aS'581.89'
p3548
aS'573.01'
p3549
aS'581.73'
p3550
aS'1604800'
p3551
aS'581.7'
p3552
aa(lp3553
S'2011-03-28'
p3554
aS'582.07'
p3555
aS'584.99'
p3556
aS'574.71'
p3557
aS'575.36'
p3558
aS'2218400'
p3559
aS'575.3'
p3560
aa(lp3561
S'2011-03-25'
p3562
aS'586.88'
p3563
aS'586.91'
p3564
aS'579.24'
p3565
aS'579.74'
p3566
aS'2858400'
p3567
aS'579.7'
p3568
aa(lp3569
S'2011-03-24'
p3570
aS'585.43'
p3571
aS'588.39'
p3572
aS'578.80'
p3573
aS'586.89'
p3574
aS'2098700'
p3575
aS'586.8'
p3576
aa(lp3577
S'2011-03-23'
p3578
aS'575.19'
p3579
aS'582.45'
p3580
aS'572.00'
p3581
aS'582.16'
p3582
aS'1816200'
p3583
aS'582.1'
p3584
aa(lp3585
S'2011-03-22'
p3586
aS'577.27'
p3587
aS'579.23'
p3588
aS'572.51'
p3589
aS'577.32'
p3590
aS'1886900'
p3591
aS'577.3'
p3592
aa(lp3593
S'2011-03-21'
p3594
aS'570.22'
p3595
aS'579.80'
p3596
aS'569.02'
p3597
aS'576.50'
p3598
aS'3020900'
p3599
aS'576.5'
p3600
aa(lp3601
S'2011-03-18'
p3602
aS'564.64'
p3603
aS'567.99'
p3604
aS'559.74'
p3605
aS'561.06'
p3606
aS'3298600'
p3607
aS'561.0'
p3608
aa(lp3609
S'2011-03-17'
p3610
aS'564.48'
p3611
aS'569.00'
p3612
aS'560.54'
p3613
aS'561.36'
p3614
aS'2899300'
p3615
aS'561.3'
p3616
aa(lp3617
S'2011-03-16'
p3618
aS'568.01'
p3619
aS'569.79'
p3620
aS'551.28'
p3621
aS'557.10'
p3622
aS'3798500'
p3623
aS'557.1'
p3624
aa(lp3625
S'2011-03-15'
p3626
aS'557.50'
p3627
aS'571.00'
p3628
aS'555.50'
p3629
aS'569.56'
p3630
aS'4005600'
p3631
aS'569.5'
p3632
aa(lp3633
S'2011-03-14'
p3634
aS'572.80'
p3635
aS'578.29'
p3636
aS'568.02'
p3637
aS'569.99'
p3638
aS'2816100'
p3639
aS'569.9'
p3640
aa(lp3641
S'2011-03-11'
p3642
aS'578.22'
p3643
aS'580.00'
p3644
aS'573.33'
p3645
aS'576.71'
p3646
aS'3032000'
p3647
aS'576.7'
p3648
aa(lp3649
S'2011-03-10'
p3650
aS'585.44'
p3651
aS'586.62'
p3652
aS'579.45'
p3653
aS'580.30'
p3654
aS'3128100'
p3655
aS'580.3'
p3656
aa(lp3657
S'2011-03-09'
p3658
aS'591.00'
p3659
aS'594.51'
p3660
aS'585.75'
p3661
aS'591.77'
p3662
aS'2151000'
p3663
aS'591.7'
p3664
aa(lp3665
S'2011-03-08'
p3666
aS'592.93'
p3667
aS'597.98'
p3668
aS'590.20'
p3669
aS'592.31'
p3670
aS'2284900'
p3671
aS'592.3'
p3672
aa(lp3673
S'2011-03-07'
p3674
aS'600.55'
p3675
aS'603.69'
p3676
aS'587.00'
p3677
aS'591.66'
p3678
aS'3462700'
p3679
aS'591.6'
p3680
aa(lp3681
S'2011-03-04'
p3682
aS'608.33'
p3683
aS'608.98'
p3684
aS'600.20'
p3685
aS'600.62'
p3686
aS'3011000'
p3687
aS'600.6'
p3688
aa(lp3689
S'2011-03-03'
p3690
aS'606.38'
p3691
aS'611.49'
p3692
aS'605.00'
p3693
aS'609.56'
p3694
aS'1945300'
p3695
aS'609.5'
p3696
aa(lp3697
S'2011-03-02'
p3698
aS'599.80'
p3699
aS'606.00'
p3700
aS'595.19'
p3701
aS'600.79'
p3702
aS'2026700'
p3703
aS'600.7'
p3704
aa(lp3705
S'2011-03-01'
p3706
aS'617.78'
p3707
aS'619.22'
p3708
aS'599.30'
p3709
aS'600.76'
p3710
aS'3323200'
p3711
aS'600.7'
p3712
aa(lp3713
S'2011-02-28'
p3714
aS'610.00'
p3715
aS'616.49'
p3716
aS'608.01'
p3717
aS'613.40'
p3718
aS'2281500'
p3719
aS'613.4'
p3720
aa(lp3721
S'2011-02-25'
p3722
aS'611.86'
p3723
aS'614.72'
p3724
aS'609.50'
p3725
aS'610.04'
p3726
aS'1932400'
p3727
aS'610.0'
p3728
aa(lp3729
S'2011-02-24'
p3730
aS'611.39'
p3731
aS'613.09'
p3732
aS'601.35'
p3733
aS'608.82'
p3734
aS'2711700'
p3735
aS'608.8'
p3736
aa(lp3737
S'2011-02-23'
p3738
aS'610.33'
p3739
aS'614.70'
p3740
aS'604.00'
p3741
aS'611.32'
p3742
aS'2889600'
p3743
aS'611.3'
p3744
aa(lp3745
S'2011-02-22'
p3746
aS'620.03'
p3747
aS'624.93'
p3748
aS'607.77'
p3749
aS'610.21'
p3750
aS'3639900'
p3751
aS'610.2'
p3752
aa(lp3753
S'2011-02-18'
p3754
aS'626.00'
p3755
aS'631.18'
p3756
aS'624.18'
p3757
aS'630.08'
p3758
aS'3217900'
p3759
aS'630.0'
p3760
aa(lp3761
S'2011-02-17'
p3762
aS'621.25'
p3763
aS'627.25'
p3764
aS'620.28'
p3765
aS'625.26'
p3766
aS'1478800'
p3767
aS'625.2'
p3768
aa(lp3769
S'2011-02-16'
p3770
aS'625.63'
p3771
aS'626.50'
p3772
aS'622.10'
p3773
aS'624.22'
p3774
aS'1684000'
p3775
aS'624.2'
p3776
aa(lp3777
S'2011-02-15'
p3778
aS'627.32'
p3779
aS'630.09'
p3780
aS'623.10'
p3781
aS'624.15'
p3782
aS'2092000'
p3783
aS'624.1'
p3784
aa(lp3785
S'2011-02-14'
p3786
aS'623.34'
p3787
aS'629.64'
p3788
aS'620.04'
p3789
aS'628.15'
p3790
aS'2128000'
p3791
aS'628.1'
p3792
aa(lp3793
S'2011-02-11'
p3794
aS'613.79'
p3795
aS'625.00'
p3796
aS'613.00'
p3797
aS'624.50'
p3798
aS'2589900'
p3799
aS'624.5'
p3800
aa(lp3801
S'2011-02-10'
p3802
aS'613.90'
p3803
aS'617.50'
p3804
aS'611.56'
p3805
aS'616.44'
p3806
aS'2334400'
p3807
aS'616.4'
p3808
aa(lp3809
S'2011-02-09'
p3810
aS'616.87'
p3811
aS'619.45'
p3812
aS'612.34'
p3813
aS'616.50'
p3814
aS'1842500'
p3815
aS'616.5'
p3816
aa(lp3817
S'2011-02-08'
p3818
aS'614.93'
p3819
aS'619.63'
p3820
aS'614.51'
p3821
aS'618.38'
p3822
aS'1694900'
p3823
aS'618.3'
p3824
aa(lp3825
S'2011-02-07'
p3826
aS'610.16'
p3827
aS'618.39'
p3828
aS'609.21'
p3829
aS'614.29'
p3830
aS'1799600'
p3831
aS'614.2'
p3832
aa(lp3833
S'2011-02-04'
p3834
aS'610.15'
p3835
aS'611.44'
p3836
aS'606.61'
p3837
aS'610.98'
p3838
aS'1550800'
p3839
aS'610.9'
p3840
aa(lp3841
S'2011-02-03'
p3842
aS'609.48'
p3843
aS'611.45'
p3844
aS'606.13'
p3845
aS'610.15'
p3846
aS'1495100'
p3847
aS'610.1'
p3848
aa(lp3849
S'2011-02-02'
p3850
aS'611.00'
p3851
aS'614.34'
p3852
aS'607.53'
p3853
aS'612.00'
p3854
aS'1760700'
p3855
aS'612.0'
p3856
aa(lp3857
S'2011-02-01'
p3858
aS'604.49'
p3859
aS'613.35'
p3860
aS'603.11'
p3861
aS'611.04'
p3862
aS'2745300'
p3863
aS'611.0'
p3864
aa(lp3865
S'2011-01-31'
p3866
aS'603.60'
p3867
aS'604.47'
p3868
aS'595.55'
p3869
aS'600.36'
p3870
aS'2804900'
p3871
aS'600.3'
p3872
aa(lp3873
S'2011-01-28'
p3874
aS'619.07'
p3875
aS'620.36'
p3876
aS'599.76'
p3877
aS'600.99'
p3878
aS'4231100'
p3879
aS'600.9'
p3880
aa(lp3881
S'2011-01-27'
p3882
aS'617.89'
p3883
aS'619.70'
p3884
aS'613.25'
p3885
aS'616.79'
p3886
aS'2019200'
p3887
aS'616.7'
p3888
aa(lp3889
S'2011-01-26'
p3890
aS'620.33'
p3891
aS'622.49'
p3892
aS'615.28'
p3893
aS'616.50'
p3894
aS'2038100'
p3895
aS'616.5'
p3896
aa(lp3897
S'2011-01-25'
p3898
aS'608.20'
p3899
aS'620.69'
p3900
aS'606.52'
p3901
aS'619.91'
p3902
aS'3646800'
p3903
aS'619.9'
p3904
aa(lp3905
S'2011-01-24'
p3906
aS'607.57'
p3907
aS'612.49'
p3908
aS'601.23'
p3909
aS'611.08'
p3910
aS'4599200'
p3911
aS'611.0'
p3912
aa(lp3913
S'2011-01-21'
p3914
aS'639.58'
p3915
aS'641.73'
p3916
aS'611.36'
p3917
aS'611.83'
p3918
aS'8904400'
p3919
aS'611.8'
p3920
aa(lp3921
S'2011-01-20'
p3922
aS'632.21'
p3923
aS'634.08'
p3924
aS'623.29'
p3925
aS'626.77'
p3926
aS'5485800'
p3927
aS'626.7'
p3928
aa(lp3929
S'2011-01-19'
p3930
aS'642.12'
p3931
aS'642.96'
p3932
aS'629.66'
p3933
aS'631.75'
p3934
aS'3406100'
p3935
aS'631.7'
p3936
aa(lp3937
S'2011-01-18'
p3938
aS'626.06'
p3939
aS'641.99'
p3940
aS'625.27'
p3941
aS'639.63'
p3942
aS'3617000'
p3943
aS'639.6'
p3944
aa(lp3945
S'2011-01-14'
p3946
aS'617.40'
p3947
aS'624.27'
p3948
aS'617.08'
p3949
aS'624.18'
p3950
aS'2365600'
p3951
aS'624.1'
p3952
aa(lp3953
S'2011-01-13'
p3954
aS'616.97'
p3955
aS'619.67'
p3956
aS'614.16'
p3957
aS'616.69'
p3958
aS'1334000'
p3959
aS'616.6'
p3960
aa(lp3961
S'2011-01-12'
p3962
aS'619.35'
p3963
aS'619.35'
p3964
aS'614.77'
p3965
aS'616.87'
p3966
aS'1632700'
p3967
aS'616.8'
p3968
aa(lp3969
S'2011-01-11'
p3970
aS'617.71'
p3971
aS'618.80'
p3972
aS'614.50'
p3973
aS'616.01'
p3974
aS'1439300'
p3975
aS'616.0'
p3976
aa(lp3977
S'2011-01-10'
p3978
aS'614.80'
p3979
aS'615.39'
p3980
aS'608.56'
p3981
aS'614.21'
p3982
aS'1579200'
p3983
aS'614.2'
p3984
aa(lp3985
S'2011-01-07'
p3986
aS'615.91'
p3987
aS'618.25'
p3988
aS'610.13'
p3989
aS'616.44'
p3990
aS'2101200'
p3991
aS'616.4'
p3992
aa(lp3993
S'2011-01-06'
p3994
aS'610.68'
p3995
aS'618.43'
p3996
aS'610.05'
p3997
aS'613.50'
p3998
aS'2057800'
p3999
aS'613.5'
p4000
aa(lp4001
S'2011-01-05'
p4002
aS'600.07'
p4003
aS'610.33'
p4004
aS'600.05'
p4005
aS'609.07'
p4006
aS'2532300'
p4007
aS'609.0'
p4008
aa(lp4009
S'2011-01-04'
p4010
aS'605.62'
p4011
aS'606.18'
p4012
aS'600.12'
p4013
aS'602.12'
p4014
aS'1824500'
p4015
aS'602.1'
p4016
aa(lp4017
S'2011-01-03'
p4018
aS'596.48'
p4019
aS'605.59'
p4020
aS'596.48'
p4021
aS'604.35'
p4022
aS'2365200'
p4023
aS'604.3'
p4024
aa(lp4025
S'2010-12-31'
p4026
aS'596.74'
p4027
aS'598.42'
p4028
aS'592.03'
p4029
aS'593.97'
p4030
aS'1539300'
p4031
aS'593.9'
p4032
aa(lp4033
S'2010-12-30'
p4034
aS'598.00'
p4035
aS'601.33'
p4036
aS'597.39'
p4037
aS'598.86'
p4038
aS'989500'
p4039
aS'598.8'
p4040
aa(lp4041
S'2010-12-29'
p4042
aS'602.00'
p4043
aS'602.41'
p4044
aS'598.92'
p4045
aS'601.00'
p4046
aS'1019200'
p4047
aS'601.0'
p4048
aa(lp4049
S'2010-12-28'
p4050
aS'602.05'
p4051
aS'603.87'
p4052
aS'598.01'
p4053
aS'598.92'
p4054
aS'1064800'
p4055
aS'598.9'
p4056
aa(lp4057
S'2010-12-27'
p4058
aS'602.74'
p4059
aS'603.78'
p4060
aS'599.50'
p4061
aS'602.38'
p4062
aS'1208100'
p4063
aS'602.3'
p4064
aa(lp4065
S'2010-12-23'
p4066
aS'605.34'
p4067
aS'606.00'
p4068
aS'602.03'
p4069
aS'604.23'
p4070
aS'1110800'
p4071
aS'604.2'
p4072
aa(lp4073
S'2010-12-22'
p4074
aS'604.00'
p4075
aS'607.00'
p4076
aS'603.28'
p4077
aS'605.49'
p4078
aS'1207500'
p4079
aS'605.4'
p4080
aa(lp4081
S'2010-12-21'
p4082
aS'598.57'
p4083
aS'604.72'
p4084
aS'597.61'
p4085
aS'603.07'
p4086
aS'1879500'
p4087
aS'603.0'
p4088
aa(lp4089
S'2010-12-20'
p4090
aS'594.65'
p4091
aS'597.88'
p4092
aS'588.66'
p4093
aS'595.06'
p4094
aS'1973300'
p4095
aS'595.0'
p4096
aa(lp4097
S'2010-12-17'
p4098
aS'591.00'
p4099
aS'592.56'
p4100
aS'587.67'
p4101
aS'590.80'
p4102
aS'3087100'
p4103
aS'590.8'
p4104
aa(lp4105
S'2010-12-16'
p4106
aS'592.85'
p4107
aS'593.77'
p4108
aS'588.07'
p4109
aS'591.71'
p4110
aS'1596900'
p4111
aS'591.7'
p4112
aa(lp4113
S'2010-12-15'
p4114
aS'594.20'
p4115
aS'596.45'
p4116
aS'589.15'
p4117
aS'590.30'
p4118
aS'2167700'
p4119
aS'590.3'
p4120
aa(lp4121
S'2010-12-14'
p4122
aS'597.09'
p4123
aS'598.29'
p4124
aS'592.48'
p4125
aS'594.91'
p4126
aS'1643300'
p4127
aS'594.9'
p4128
aa(lp4129
S'2010-12-13'
p4130
aS'597.12'
p4131
aS'603.00'
p4132
aS'594.09'
p4133
aS'594.62'
p4134
aS'2398500'
p4135
aS'594.6'
p4136
aa(lp4137
S'2010-12-10'
p4138
aS'593.14'
p4139
aS'593.99'
p4140
aS'590.29'
p4141
aS'592.21'
p4142
aS'1704700'
p4143
aS'592.2'
p4144
aa(lp4145
S'2010-12-09'
p4146
aS'593.88'
p4147
aS'595.58'
p4148
aS'589.00'
p4149
aS'591.50'
p4150
aS'1868900'
p4151
aS'591.5'
p4152
aa(lp4153
S'2010-12-08'
p4154
aS'591.97'
p4155
aS'592.52'
p4156
aS'583.69'
p4157
aS'590.54'
p4158
aS'1756900'
p4159
aS'590.5'
p4160
aa(lp4161
S'2010-12-07'
p4162
aS'591.27'
p4163
aS'593.00'
p4164
aS'586.00'
p4165
aS'587.14'
p4166
aS'3042200'
p4167
aS'587.1'
p4168
aa(lp4169
S'2010-12-06'
p4170
aS'580.57'
p4171
aS'582.00'
p4172
aS'576.61'
p4173
aS'578.36'
p4174
aS'2093800'
p4175
aS'578.3'
p4176
aa(lp4177
S'2010-12-03'
p4178
aS'569.45'
p4179
aS'576.48'
p4180
aS'568.00'
p4181
aS'573.00'
p4182
aS'2631200'
p4183
aS'573.0'
p4184
aa(lp4185
S'2010-12-02'
p4186
aS'568.66'
p4187
aS'573.33'
p4188
aS'565.35'
p4189
aS'571.82'
p4190
aS'2547900'
p4191
aS'571.8'
p4192
aa(lp4193
S'2010-12-01'
p4194
aS'563.00'
p4195
aS'571.57'
p4196
aS'562.40'
p4197
aS'564.35'
p4198
aS'3754100'
p4199
aS'564.3'
p4200
aa(lp4201
S'2010-11-30'
p4202
aS'574.32'
p4203
aS'574.32'
p4204
aS'553.31'
p4205
aS'555.71'
p4206
aS'7117400'
p4207
aS'555.7'
p4208
aa(lp4209
S'2010-11-29'
p4210
aS'589.17'
p4211
aS'589.80'
p4212
aS'579.95'
p4213
aS'582.11'
p4214
aS'2859700'
p4215
aS'582.1'
p4216
aa(lp4217
S'2010-11-26'
p4218
aS'590.46'
p4219
aS'592.98'
p4220
aS'587.00'
p4221
aS'590.00'
p4222
aS'1311100'
p4223
aS'590.0'
p4224
aa(lp4225
S'2010-11-24'
p4226
aS'587.31'
p4227
aS'596.60'
p4228
aS'587.05'
p4229
aS'594.97'
p4230
aS'2396400'
p4231
aS'594.9'
p4232
aa(lp4233
S'2010-11-23'
p4234
aS'587.01'
p4235
aS'589.01'
p4236
aS'578.20'
p4237
aS'583.01'
p4238
aS'2162600'
p4239
aS'583.0'
p4240
aa(lp4241
S'2010-11-22'
p4242
aS'587.47'
p4243
aS'593.44'
p4244
aS'582.75'
p4245
aS'591.22'
p4246
aS'2186600'
p4247
aS'591.2'
p4248
aa(lp4249
S'2010-11-19'
p4250
aS'597.00'
p4251
aS'597.89'
p4252
aS'590.34'
p4253
aS'590.83'
p4254
aS'2297500'
p4255
aS'590.8'
p4256
aa(lp4257
S'2010-11-18'
p4258
aS'589.00'
p4259
aS'599.98'
p4260
aS'588.56'
p4261
aS'596.56'
p4262
aS'2590000'
p4263
aS'596.5'
p4264
aa(lp4265
S'2010-11-17'
p4266
aS'585.00'
p4267
aS'589.50'
p4268
aS'581.37'
p4269
aS'583.55'
p4270
aS'2442500'
p4271
aS'583.5'
p4272
aa(lp4273
S'2010-11-16'
p4274
aS'592.76'
p4275
aS'597.89'
p4276
aS'583.45'
p4277
aS'583.72'
p4278
aS'3307400'
p4279
aS'583.7'
p4280
aa(lp4281
S'2010-11-15'
p4282
aS'603.08'
p4283
aS'604.00'
p4284
aS'594.05'
p4285
aS'595.47'
p4286
aS'3478900'
p4287
aS'595.4'
p4288
aa(lp4289
S'2010-11-12'
p4290
aS'613.99'
p4291
aS'616.90'
p4292
aS'601.21'
p4293
aS'603.29'
p4294
aS'3393000'
p4295
aS'603.2'
p4296
aa(lp4297
S'2010-11-11'
p4298
aS'619.70'
p4299
aS'619.85'
p4300
aS'614.21'
p4301
aS'617.19'
p4302
aS'2261600'
p4303
aS'617.1'
p4304
aa(lp4305
S'2010-11-10'
p4306
aS'622.08'
p4307
aS'623.00'
p4308
aS'617.51'
p4309
aS'622.88'
p4310
aS'2497000'
p4311
aS'622.8'
p4312
aa(lp4313
S'2010-11-09'
p4314
aS'630.00'
p4315
aS'630.85'
p4316
aS'620.51'
p4317
aS'624.82'
p4318
aS'2237200'
p4319
aS'624.8'
p4320
aa(lp4321
S'2010-11-08'
p4322
aS'624.02'
p4323
aS'629.49'
p4324
aS'623.13'
p4325
aS'626.77'
p4326
aS'2101300'
p4327
aS'626.7'
p4328
aa(lp4329
S'2010-11-05'
p4330
aS'623.18'
p4331
aS'625.49'
p4332
aS'621.11'
p4333
aS'625.08'
p4334
aS'1765700'
p4335
aS'625.0'
p4336
aa(lp4337
S'2010-11-04'
p4338
aS'624.64'
p4339
aS'629.92'
p4340
aS'622.10'
p4341
aS'624.27'
p4342
aS'3570800'
p4343
aS'624.2'
p4344
aa(lp4345
S'2010-11-03'
p4346
aS'617.50'
p4347
aS'621.83'
p4348
aS'613.50'
p4349
aS'620.18'
p4350
aS'3380500'
p4351
aS'620.1'
p4352
aa(lp4353
S'2010-11-02'
p4354
aS'618.67'
p4355
aS'620.00'
p4356
aS'614.58'
p4357
aS'615.60'
p4358
aS'1997600'
p4359
aS'615.6'
p4360
aa(lp4361
S'2010-11-01'
p4362
aS'615.73'
p4363
aS'620.66'
p4364
aS'611.21'
p4365
aS'615.00'
p4366
aS'3087100'
p4367
aS'615.0'
p4368
aa(lp4369
S'2010-10-29'
p4370
aS'617.07'
p4371
aS'619.00'
p4372
aS'612.99'
p4373
aS'613.70'
p4374
aS'2278300'
p4375
aS'613.7'
p4376
aa(lp4377
S'2010-10-28'
p4378
aS'620.05'
p4379
aS'621.00'
p4380
aS'613.30'
p4381
aS'618.58'
p4382
aS'2184300'
p4383
aS'618.5'
p4384
aa(lp4385
S'2010-10-27'
p4386
aS'615.77'
p4387
aS'620.00'
p4388
aS'612.33'
p4389
aS'616.47'
p4390
aS'2241900'
p4391
aS'616.4'
p4392
aa(lp4393
S'2010-10-26'
p4394
aS'613.10'
p4395
aS'621.23'
p4396
aS'611.03'
p4397
aS'618.60'
p4398
aS'2512900'
p4399
aS'618.6'
p4400
aa(lp4401
S'2010-10-25'
p4402
aS'615.59'
p4403
aS'624.74'
p4404
aS'614.97'
p4405
aS'616.50'
p4406
aS'3158400'
p4407
aS'616.5'
p4408
aa(lp4409
S'2010-10-22'
p4410
aS'611.92'
p4411
aS'614.82'
p4412
aS'610.05'
p4413
aS'612.53'
p4414
aS'2256100'
p4415
aS'612.5'
p4416
aa(lp4417
S'2010-10-21'
p4418
aS'611.51'
p4419
aS'616.00'
p4420
aS'606.00'
p4421
aS'611.99'
p4422
aS'2920500'
p4423
aS'611.9'
p4424
aa(lp4425
S'2010-10-20'
p4426
aS'608.14'
p4427
aS'617.38'
p4428
aS'607.50'
p4429
aS'607.98'
p4430
aS'3525100'
p4431
aS'607.9'
p4432
aa(lp4433
S'2010-10-19'
p4434
aS'608.85'
p4435
aS'614.82'
p4436
aS'602.86'
p4437
aS'607.83'
p4438
aS'4587900'
p4439
aS'607.8'
p4440
aa(lp4441
S'2010-10-18'
p4442
aS'600.55'
p4443
aS'619.69'
p4444
aS'600.55'
p4445
aS'617.71'
p4446
aS'7098200'
p4447
aS'617.7'
p4448
aa(lp4449
S'2010-10-15'
p4450
aS'599.27'
p4451
aS'601.64'
p4452
aS'591.60'
p4453
aS'601.45'
p4454
aS'14824800'
p4455
aS'601.4'
p4456
aa(lp4457
S'2010-10-14'
p4458
aS'544.18'
p4459
aS'545.25'
p4460
aS'537.11'
p4461
aS'540.93'
p4462
aS'6634100'
p4463
aS'540.9'
p4464
aa(lp4465
S'2010-10-13'
p4466
aS'547.00'
p4467
aS'547.49'
p4468
aS'542.33'
p4469
aS'543.30'
p4470
aS'3055600'
p4471
aS'543.3'
p4472
aa(lp4473
S'2010-10-12'
p4474
aS'540.12'
p4475
aS'545.99'
p4476
aS'537.79'
p4477
aS'541.39'
p4478
aS'3753600'
p4479
aS'541.3'
p4480
aa(lp4481
S'2010-10-11'
p4482
aS'538.48'
p4483
aS'544.60'
p4484
aS'537.17'
p4485
aS'538.84'
p4486
aS'2626300'
p4487
aS'538.8'
p4488
aa(lp4489
S'2010-10-08'
p4490
aS'532.77'
p4491
aS'537.60'
p4492
aS'527.62'
p4493
aS'536.35'
p4494
aS'2859200'
p4495
aS'536.3'
p4496
aa(lp4497
S'2010-10-07'
p4498
aS'536.21'
p4499
aS'537.20'
p4500
aS'529.14'
p4501
aS'530.01'
p4502
aS'2395800'
p4503
aS'530.0'
p4504
aa(lp4505
S'2010-10-06'
p4506
aS'539.26'
p4507
aS'539.95'
p4508
aS'529.94'
p4509
aS'534.35'
p4510
aS'2762300'
p4511
aS'534.3'
p4512
aa(lp4513
S'2010-10-05'
p4514
aS'528.38'
p4515
aS'540.00'
p4516
aS'526.55'
p4517
aS'538.23'
p4518
aS'3507100'
p4519
aS'538.2'
p4520
aa(lp4521
S'2010-10-04'
p4522
aS'524.95'
p4523
aS'528.25'
p4524
aS'518.85'
p4525
aS'522.35'
p4526
aS'1940500'
p4527
aS'522.3'
p4528
aa(lp4529
S'2010-10-01'
p4530
aS'530.00'
p4531
aS'530.62'
p4532
aS'523.00'
p4533
aS'525.62'
p4534
aS'2225000'
p4535
aS'525.6'
p4536
aa(lp4537
S'2010-09-30'
p4538
aS'529.16'
p4539
aS'531.87'
p4540
aS'518.92'
p4541
aS'525.79'
p4542
aS'3244100'
p4543
aS'525.7'
p4544
aa(lp4545
S'2010-09-29'
p4546
aS'527.85'
p4547
aS'532.94'
p4548
aS'524.71'
p4549
aS'527.69'
p4550
aS'2172200'
p4551
aS'527.6'
p4552
aa(lp4553
S'2010-09-28'
p4554
aS'533.48'
p4555
aS'533.59'
p4556
aS'518.45'
p4557
aS'527.17'
p4558
aS'3654700'
p4559
aS'527.1'
p4560
aa(lp4561
S'2010-09-27'
p4562
aS'528.85'
p4563
aS'536.85'
p4564
aS'528.85'
p4565
aS'530.41'
p4566
aS'3107400'
p4567
aS'530.4'
p4568
aa(lp4569
S'2010-09-24'
p4570
aS'521.74'
p4571
aS'527.83'
p4572
aS'518.26'
p4573
aS'527.29'
p4574
aS'3356900'
p4575
aS'527.2'
p4576
aa(lp4577
S'2010-09-23'
p4578
aS'514.61'
p4579
aS'519.69'
p4580
aS'511.30'
p4581
aS'513.48'
p4582
aS'2317400'
p4583
aS'513.4'
p4584
aa(lp4585
S'2010-09-22'
p4586
aS'512.86'
p4587
aS'517.78'
p4588
aS'511.68'
p4589
aS'516.00'
p4590
aS'2537100'
p4591
aS'516.0'
p4592
aa(lp4593
S'2010-09-21'
p4594
aS'509.68'
p4595
aS'519.98'
p4596
aS'508.91'
p4597
aS'513.46'
p4598
aS'4466300'
p4599
aS'513.4'
p4600
aa(lp4601
S'2010-09-20'
p4602
aS'492.50'
p4603
aS'510.41'
p4604
aS'492.06'
p4605
aS'508.28'
p4606
aS'4403500'
p4607
aS'508.2'
p4608
aa(lp4609
S'2010-09-17'
p4610
aS'483.75'
p4611
aS'491.20'
p4612
aS'481.18'
p4613
aS'490.15'
p4614
aS'5641600'
p4615
aS'490.1'
p4616
aa(lp4617
S'2010-09-16'
p4618
aS'479.95'
p4619
aS'482.45'
p4620
aS'479.41'
p4621
aS'481.06'
p4622
aS'1969500'
p4623
aS'481.0'
p4624
aa(lp4625
S'2010-09-15'
p4626
aS'479.95'
p4627
aS'481.89'
p4628
aS'478.50'
p4629
aS'480.64'
p4630
aS'2402800'
p4631
aS'480.6'
p4632
aa(lp4633
S'2010-09-14'
p4634
aS'482.01'
p4635
aS'484.75'
p4636
aS'480.08'
p4637
aS'480.43'
p4638
aS'2216500'
p4639
aS'480.4'
p4640
aa(lp4641
S'2010-09-13'
p4642
aS'480.90'
p4643
aS'484.35'
p4644
aS'479.53'
p4645
aS'482.27'
p4646
aS'2241500'
p4647
aS'482.2'
p4648
aa(lp4649
S'2010-09-10'
p4650
aS'479.02'
p4651
aS'479.79'
p4652
aS'475.08'
p4653
aS'476.14'
p4654
aS'1974300'
p4655
aS'476.1'
p4656
aa(lp4657
S'2010-09-09'
p4658
aS'477.83'
p4659
aS'480.40'
p4660
aS'470.58'
p4661
aS'476.18'
p4662
aS'2430600'
p4663
aS'476.1'
p4664
aa(lp4665
S'2010-09-08'
p4666
aS'465.19'
p4667
aS'472.50'
p4668
aS'464.51'
p4669
aS'470.58'
p4670
aS'2401800'
p4671
aS'470.5'
p4672
aa(lp4673
S'2010-09-07'
p4674
aS'464.50'
p4675
aS'467.59'
p4676
aS'463.02'
p4677
aS'464.40'
p4678
aS'1709900'
p4679
aS'464.4'
p4680
aa(lp4681
S'2010-09-03'
p4682
aS'470.52'
p4683
aS'471.88'
p4684
aS'467.44'
p4685
aS'470.30'
p4686
aS'2540400'
p4687
aS'470.3'
p4688
aa(lp4689
S'2010-09-02'
p4690
aS'462.84'
p4691
aS'464.43'
p4692
aS'460.31'
p4693
aS'463.18'
p4694
aS'1684200'
p4695
aS'463.1'
p4696
aa(lp4697
S'2010-09-01'
p4698
aS'454.98'
p4699
aS'464.94'
p4700
aS'452.50'
p4701
aS'460.33'
p4702
aS'3228300'
p4703
aS'460.3'
p4704
aa(lp4705
S'2010-08-31'
p4706
aS'450.11'
p4707
aS'454.87'
p4708
aS'448.00'
p4709
aS'450.02'
p4710
aS'1946800'
p4711
aS'450.0'
p4712
aa(lp4713
S'2010-08-30'
p4714
aS'459.15'
p4715
aS'459.76'
p4716
aS'452.42'
p4717
aS'452.69'
p4718
aS'1231400'
p4719
aS'452.6'
p4720
aa(lp4721
S'2010-08-27'
p4722
aS'452.56'
p4723
aS'459.99'
p4724
aS'447.65'
p4725
aS'458.83'
p4726
aS'2312400'
p4727
aS'458.8'
p4728
aa(lp4729
S'2010-08-26'
p4730
aS'456.06'
p4731
aS'457.26'
p4732
aS'450.44'
p4733
aS'450.98'
p4734
aS'1777000'
p4735
aS'450.9'
p4736
aa(lp4737
S'2010-08-25'
p4738
aS'450.00'
p4739
aS'457.81'
p4740
aS'450.00'
p4741
aS'454.62'
p4742
aS'2592100'
p4743
aS'454.6'
p4744
aa(lp4745
S'2010-08-24'
p4746
aS'457.70'
p4747
aS'458.37'
p4748
aS'450.92'
p4749
aS'451.39'
p4750
aS'2762700'
p4751
aS'451.3'
p4752
aa(lp4753
S'2010-08-23'
p4754
aS'461.50'
p4755
aS'468.25'
p4756
aS'457.73'
p4757
aS'464.07'
p4758
aS'2986200'
p4759
aS'464.0'
p4760
aa(lp4761
S'2010-08-20'
p4762
aS'467.97'
p4763
aS'471.59'
p4764
aS'461.02'
p4765
aS'462.02'
p4766
aS'3917600'
p4767
aS'462.0'
p4768
aa(lp4769
S'2010-08-19'
p4770
aS'481.01'
p4771
aS'482.51'
p4772
aS'467.25'
p4773
aS'467.97'
p4774
aS'3925000'
p4775
aS'467.9'
p4776
aa(lp4777
S'2010-08-18'
p4778
aS'490.44'
p4779
aS'490.87'
p4780
aS'481.55'
p4781
aS'482.15'
p4782
aS'2686400'
p4783
aS'482.1'
p4784
aa(lp4785
S'2010-08-17'
p4786
aS'488.53'
p4787
aS'494.70'
p4788
aS'486.03'
p4789
aS'490.52'
p4790
aS'1890700'
p4791
aS'490.5'
p4792
aa(lp4793
S'2010-08-16'
p4794
aS'483.68'
p4795
aS'489.87'
p4796
aS'480.50'
p4797
aS'485.59'
p4798
aS'1305000'
p4799
aS'485.5'
p4800
aa(lp4801
S'2010-08-13'
p4802
aS'489.00'
p4803
aS'491.19'
p4804
aS'486.01'
p4805
aS'486.35'
p4806
aS'1934700'
p4807
aS'486.3'
p4808
aa(lp4809
S'2010-08-12'
p4810
aS'483.94'
p4811
aS'494.75'
p4812
aS'482.51'
p4813
aS'492.01'
p4814
aS'2204600'
p4815
aS'492.0'
p4816
aa(lp4817
S'2010-08-11'
p4818
aS'497.73'
p4819
aS'498.00'
p4820
aS'491.50'
p4821
aS'491.74'
p4822
aS'2223000'
p4823
aS'491.7'
p4824
aa(lp4825
S'2010-08-10'
p4826
aS'502.35'
p4827
aS'506.00'
p4828
aS'498.57'
p4829
aS'503.71'
p4830
aS'2074000'
p4831
aS'503.7'
p4832
aa(lp4833
S'2010-08-09'
p4834
aS'502.25'
p4835
aS'505.50'
p4836
aS'501.36'
p4837
aS'505.35'
p4838
aS'1872200'
p4839
aS'505.3'
p4840
aa(lp4841
S'2010-08-06'
p4842
aS'505.40'
p4843
aS'505.74'
p4844
aS'496.05'
p4845
aS'500.22'
p4846
aS'3319500'
p4847
aS'500.2'
p4848
aa(lp4849
S'2010-08-05'
p4850
aS'505.89'
p4851
aS'508.60'
p4852
aS'503.56'
p4853
aS'508.10'
p4854
aS'2420400'
p4855
aS'508.1'
p4856
aa(lp4857
S'2010-08-04'
p4858
aS'492.18'
p4859
aS'507.00'
p4860
aS'491.05'
p4861
aS'506.32'
p4862
aS'3812500'
p4863
aS'506.3'
p4864
aa(lp4865
S'2010-08-03'
p4866
aS'490.50'
p4867
aS'492.46'
p4868
aS'486.76'
p4869
aS'489.83'
p4870
aS'1802300'
p4871
aS'489.8'
p4872
aa(lp4873
S'2010-08-02'
p4874
aS'488.99'
p4875
aS'493.28'
p4876
aS'486.94'
p4877
aS'490.41'
p4878
aS'1858700'
p4879
aS'490.4'
p4880
aa(lp4881
S'2010-07-30'
p4882
aS'479.65'
p4883
aS'487.36'
p4884
aS'479.14'
p4885
aS'484.85'
p4886
aS'2144100'
p4887
aS'484.8'
p4888
aa(lp4889
S'2010-07-29'
p4890
aS'485.95'
p4891
aS'488.88'
p4892
aS'479.33'
p4893
aS'484.99'
p4894
aS'2675500'
p4895
aS'484.9'
p4896
aa(lp4897
S'2010-07-28'
p4898
aS'494.94'
p4899
aS'495.25'
p4900
aS'482.67'
p4901
aS'484.35'
p4902
aS'2496000'
p4903
aS'484.3'
p4904
aa(lp4905
S'2010-07-27'
p4906
aS'490.58'
p4907
aS'497.50'
p4908
aS'490.17'
p4909
aS'492.63'
p4910
aS'2451200'
p4911
aS'492.6'
p4912
aa(lp4913
S'2010-07-26'
p4914
aS'489.09'
p4915
aS'490.75'
p4916
aS'484.88'
p4917
aS'488.97'
p4918
aS'1995200'
p4919
aS'488.9'
p4920
aa(lp4921
S'2010-07-23'
p4922
aS'480.77'
p4923
aS'490.59'
p4924
aS'480.01'
p4925
aS'490.06'
p4926
aS'2264400'
p4927
aS'490.0'
p4928
aa(lp4929
S'2010-07-22'
p4930
aS'483.23'
p4931
aS'488.98'
p4932
aS'482.48'
p4933
aS'484.81'
p4934
aS'2147700'
p4935
aS'484.8'
p4936
aa(lp4937
S'2010-07-21'
p4938
aS'484.00'
p4939
aS'485.70'
p4940
aS'475.43'
p4941
aS'477.50'
p4942
aS'3279600'
p4943
aS'477.5'
p4944
aa(lp4945
S'2010-07-20'
p4946
aS'461.03'
p4947
aS'482.99'
p4948
aS'460.60'
p4949
aS'481.59'
p4950
aS'4054500'
p4951
aS'481.5'
p4952
aa(lp4953
S'2010-07-19'
p4954
aS'461.01'
p4955
aS'469.65'
p4956
aS'457.52'
p4957
aS'466.18'
p4958
aS'4550300'
p4959
aS'466.1'
p4960
aa(lp4961
S'2010-07-16'
p4962
aS'469.12'
p4963
aS'470.56'
p4964
aS'459.52'
p4965
aS'459.61'
p4966
aS'7824800'
p4967
aS'459.6'
p4968
aa(lp4969
S'2010-07-15'
p4970
aS'491.73'
p4971
aS'494.70'
p4972
aS'482.68'
p4973
aS'494.02'
p4974
aS'4858200'
p4975
aS'494.0'
p4976
aa(lp4977
S'2010-07-14'
p4978
aS'489.88'
p4979
aS'493.83'
p4980
aS'486.46'
p4981
aS'491.34'
p4982
aS'3118000'
p4983
aS'491.3'
p4984
aa(lp4985
S'2010-07-13'
p4986
aS'482.25'
p4987
aS'492.99'
p4988
aS'480.28'
p4989
aS'489.20'
p4990
aS'3976300'
p4991
aS'489.2'
p4992
aa(lp4993
S'2010-07-12'
p4994
aS'472.37'
p4995
aS'479.44'
p4996
aS'471.08'
p4997
aS'475.83'
p4998
aS'3334400'
p4999
aS'475.8'
p5000
aa(lp5001
S'2010-07-09'
p5002
aS'471.96'
p5003
aS'473.26'
p5004
aS'462.78'
p5005
aS'467.49'
p5006
aS'4331500'
p5007
aS'467.4'
p5008
aa(lp5009
S'2010-07-08'
p5010
aS'453.55'
p5011
aS'457.33'
p5012
aS'449.66'
p5013
aS'456.56'
p5014
aS'2668900'
p5015
aS'456.5'
p5016
aa(lp5017
S'2010-07-07'
p5018
aS'438.31'
p5019
aS'451.29'
p5020
aS'435.38'
p5021
aS'450.20'
p5022
aS'3129700'
p5023
aS'450.2'
p5024
aa(lp5025
S'2010-07-06'
p5026
aS'444.00'
p5027
aS'447.67'
p5028
aS'433.63'
p5029
aS'436.07'
p5030
aS'2560100'
p5031
aS'436.0'
p5032
aa(lp5033
S'2010-07-02'
p5034
aS'441.62'
p5035
aS'442.28'
p5036
aS'436.00'
p5037
aS'436.55'
p5038
aS'1936000'
p5039
aS'436.5'
p5040
aa(lp5041
S'2010-07-01'
p5042
aS'445.29'
p5043
aS'448.40'
p5044
aS'433.63'
p5045
aS'439.49'
p5046
aS'3513600'
p5047
aS'439.4'
p5048
aa(lp5049
S'2010-06-30'
p5050
aS'454.96'
p5051
aS'457.83'
p5052
aS'444.72'
p5053
aS'444.95'
p5054
aS'3603200'
p5055
aS'444.9'
p5056
aa(lp5057
S'2010-06-29'
p5058
aS'463.44'
p5059
aS'464.55'
p5060
aS'451.12'
p5061
aS'454.26'
p5062
aS'3502100'
p5063
aS'454.2'
p5064
aa(lp5065
S'2010-06-28'
p5066
aS'472.59'
p5067
aS'477.55'
p5068
aS'469.01'
p5069
aS'472.08'
p5070
aS'1762300'
p5071
aS'472.0'
p5072
aa(lp5073
S'2010-06-25'
p5074
aS'477.06'
p5075
aS'477.65'
p5076
aS'470.56'
p5077
aS'472.68'
p5078
aS'2245200'
p5079
aS'472.6'
p5080
aa(lp5081
S'2010-06-24'
p5082
aS'479.66'
p5083
aS'482.75'
p5084
aS'473.26'
p5085
aS'475.10'
p5086
aS'1893600'
p5087
aS'475.1'
p5088
aa(lp5089
S'2010-06-23'
p5090
aS'486.89'
p5091
aS'486.89'
p5092
aS'478.16'
p5093
aS'482.05'
p5094
aS'2029100'
p5095
aS'482.0'
p5096
aa(lp5097
S'2010-06-22'
p5098
aS'489.90'
p5099
aS'496.60'
p5100
aS'485.73'
p5101
aS'486.25'
p5102
aS'2219700'
p5103
aS'486.2'
p5104
aa(lp5105
S'2010-06-21'
p5106
aS'499.90'
p5107
aS'500.97'
p5108
aS'484.89'
p5109
aS'488.56'
p5110
aS'2983500'
p5111
aS'488.5'
p5112
aa(lp5113
S'2010-06-18'
p5114
aS'502.51'
p5115
aS'503.47'
p5116
aS'498.13'
p5117
aS'500.03'
p5118
aS'2872900'
p5119
aS'500.0'
p5120
aa(lp5121
S'2010-06-17'
p5122
aS'503.45'
p5123
aS'505.87'
p5124
aS'496.69'
p5125
aS'500.08'
p5126
aS'1977300'
p5127
aS'500.0'
p5128
aa(lp5129
S'2010-06-16'
p5130
aS'496.17'
p5131
aS'504.00'
p5132
aS'496.11'
p5133
aS'501.27'
p5134
aS'2289300'
p5135
aS'501.2'
p5136
aa(lp5137
S'2010-06-15'
p5138
aS'483.08'
p5139
aS'500.40'
p5140
aS'482.18'
p5141
aS'497.99'
p5142
aS'4259600'
p5143
aS'497.9'
p5144
aa(lp5145
S'2010-06-14'
p5146
aS'494.48'
p5147
aS'494.50'
p5148
aS'483.19'
p5149
aS'483.19'
p5150
aS'2040400'
p5151
aS'483.1'
p5152
aa(lp5153
S'2010-06-11'
p5154
aS'482.50'
p5155
aS'488.71'
p5156
aS'481.62'
p5157
aS'488.50'
p5158
aS'1781700'
p5159
aS'488.5'
p5160
aa(lp5161
S'2010-06-10'
p5162
aS'480.37'
p5163
aS'488.50'
p5164
aS'475.84'
p5165
aS'487.01'
p5166
aS'2577900'
p5167
aS'487.0'
p5168
aa(lp5169
S'2010-06-09'
p5170
aS'487.22'
p5171
aS'488.88'
p5172
aS'472.00'
p5173
aS'474.02'
p5174
aS'2729000'
p5175
aS'474.0'
p5176
aa(lp5177
S'2010-06-08'
p5178
aS'487.85'
p5179
aS'488.84'
p5180
aS'477.54'
p5181
aS'484.78'
p5182
aS'2685100'
p5183
aS'484.7'
p5184
aa(lp5185
S'2010-06-07'
p5186
aS'499.06'
p5187
aS'500.91'
p5188
aS'483.15'
p5189
aS'485.52'
p5190
aS'3632700'
p5191
aS'485.5'
p5192
aa(lp5193
S'2010-06-04'
p5194
aS'499.72'
p5195
aS'509.25'
p5196
aS'496.70'
p5197
aS'498.72'
p5198
aS'3920300'
p5199
aS'498.7'
p5200
aa(lp5201
S'2010-06-03'
p5202
aS'495.11'
p5203
aS'508.00'
p5204
aS'494.70'
p5205
aS'505.60'
p5206
aS'3650700'
p5207
aS'505.6'
p5208
aa(lp5209
S'2010-06-02'
p5210
aS'486.68'
p5211
aS'493.87'
p5212
aS'481.46'
p5213
aS'493.37'
p5214
aS'2540800'
p5215
aS'493.3'
p5216
aa(lp5217
S'2010-06-01'
p5218
aS'480.43'
p5219
aS'491.06'
p5220
aS'480.12'
p5221
aS'482.37'
p5222
aS'2666800'
p5223
aS'482.3'
p5224
aa(lp5225
S'2010-05-28'
p5226
aS'492.74'
p5227
aS'493.45'
p5228
aS'483.00'
p5229
aS'485.63'
p5230
aS'2894800'
p5231
aS'485.6'
p5232
aa(lp5233
S'2010-05-27'
p5234
aS'484.95'
p5235
aS'492.31'
p5236
aS'481.05'
p5237
aS'490.46'
p5238
aS'2809100'
p5239
aS'490.4'
p5240
aa(lp5241
S'2010-05-26'
p5242
aS'482.07'
p5243
aS'489.76'
p5244
aS'475.00'
p5245
aS'475.47'
p5246
aS'3475600'
p5247
aS'475.4'
p5248
aa(lp5249
S'2010-05-25'
p5250
aS'468.15'
p5251
aS'477.45'
p5252
aS'464.01'
p5253
aS'477.07'
p5254
aS'3017400'
p5255
aS'477.0'
p5256
aa(lp5257
S'2010-05-24'
p5258
aS'480.73'
p5259
aS'489.79'
p5260
aS'476.80'
p5261
aS'477.16'
p5262
aS'4345600'
p5263
aS'477.1'
p5264
aa(lp5265
S'2010-05-21'
p5266
aS'469.06'
p5267
aS'485.00'
p5268
aS'464.40'
p5269
aS'472.05'
p5270
aS'9690800'
p5271
aS'472.0'
p5272
aa(lp5273
S'2010-05-20'
p5274
aS'485.07'
p5275
aS'485.58'
p5276
aS'473.80'
p5277
aS'475.01'
p5278
aS'4913300'
p5279
aS'475.0'
p5280
aa(lp5281
S'2010-05-19'
p5282
aS'496.26'
p5283
aS'499.44'
p5284
aS'487.74'
p5285
aS'494.43'
p5286
aS'3445700'
p5287
aS'494.4'
p5288
aa(lp5289
S'2010-05-18'
p5290
aS'510.00'
p5291
aS'510.97'
p5292
aS'497.07'
p5293
aS'498.37'
p5294
aS'2825500'
p5295
aS'498.3'
p5296
aa(lp5297
S'2010-05-17'
p5298
aS'506.78'
p5299
aS'508.36'
p5300
aS'498.35'
p5301
aS'507.97'
p5302
aS'2793800'
p5303
aS'507.9'
p5304
aa(lp5305
S'2010-05-14'
p5306
aS'509.77'
p5307
aS'510.99'
p5308
aS'496.25'
p5309
aS'507.53'
p5310
aS'4116000'
p5311
aS'507.5'
p5312
aa(lp5313
S'2010-05-13'
p5314
aS'516.50'
p5315
aS'522.00'
p5316
aS'510.37'
p5317
aS'510.88'
p5318
aS'3325800'
p5319
aS'510.8'
p5320
aa(lp5321
S'2010-05-12'
p5322
aS'512.04'
p5323
aS'512.04'
p5324
aS'502.00'
p5325
aS'505.39'
p5326
aS'3851800'
p5327
aS'505.3'
p5328
aa(lp5329
S'2010-05-11'
p5330
aS'515.67'
p5331
aS'519.88'
p5332
aS'508.22'
p5333
aS'509.05'
p5334
aS'3322600'
p5335
aS'509.0'
p5336
aa(lp5337
S'2010-05-10'
p5338
aS'513.97'
p5339
aS'522.82'
p5340
aS'512.60'
p5341
aS'521.65'
p5342
aS'4128000'
p5343
aS'521.6'
p5344
aa(lp5345
S'2010-05-07'
p5346
aS'499.97'
p5347
aS'505.32'
p5348
aS'481.33'
p5349
aS'493.14'
p5350
aS'5089000'
p5351
aS'493.1'
p5352
aa(lp5353
S'2010-05-06'
p5354
aS'508.75'
p5355
aS'517.52'
p5356
aS'460.00'
p5357
aS'498.67'
p5358
aS'5000100'
p5359
aS'498.6'
p5360
aa(lp5361
S'2010-05-05'
p5362
aS'500.98'
p5363
aS'515.72'
p5364
aS'500.47'
p5365
aS'509.76'
p5366
aS'4582200'
p5367
aS'509.7'
p5368
aa(lp5369
S'2010-05-04'
p5370
aS'526.52'
p5371
aS'526.74'
p5372
aS'504.21'
p5373
aS'506.37'
p5374
aS'6076300'
p5375
aS'506.3'
p5376
aa(lp5377
S'2010-05-03'
p5378
aS'526.50'
p5379
aS'532.92'
p5380
aS'525.08'
p5381
aS'530.60'
p5382
aS'1857800'
p5383
aS'530.6'
p5384
aa(lp5385
S'2010-04-30'
p5386
aS'531.13'
p5387
aS'537.68'
p5388
aS'525.44'
p5389
aS'525.70'
p5390
aS'2435400'
p5391
aS'525.7'
p5392
aa(lp5393
S'2010-04-29'
p5394
aS'533.37'
p5395
aS'536.50'
p5396
aS'526.67'
p5397
aS'532.00'
p5398
aS'3058900'
p5399
aS'532.0'
p5400
aa(lp5401
S'2010-04-28'
p5402
aS'532.10'
p5403
aS'534.83'
p5404
aS'521.03'
p5405
aS'529.19'
p5406
aS'3406100'
p5407
aS'529.1'
p5408
aa(lp5409
S'2010-04-27'
p5410
aS'528.95'
p5411
aS'538.33'
p5412
aS'527.23'
p5413
aS'529.06'
p5414
aS'3844700'
p5415
aS'529.0'
p5416
aa(lp5417
S'2010-04-26'
p5418
aS'544.97'
p5419
aS'544.99'
p5420
aS'529.21'
p5421
aS'531.64'
p5422
aS'4368800'
p5423
aS'531.6'
p5424
aa(lp5425
S'2010-04-23'
p5426
aS'547.25'
p5427
aS'549.32'
p5428
aS'542.27'
p5429
aS'544.99'
p5430
aS'2089400'
p5431
aS'544.9'
p5432
aa(lp5433
S'2010-04-22'
p5434
aS'552.00'
p5435
aS'552.50'
p5436
aS'543.35'
p5437
aS'547.06'
p5438
aS'3280700'
p5439
aS'547.0'
p5440
aa(lp5441
S'2010-04-21'
p5442
aS'556.46'
p5443
aS'560.25'
p5444
aS'552.16'
p5445
aS'554.30'
p5446
aS'2391500'
p5447
aS'554.3'
p5448
aa(lp5449
S'2010-04-20'
p5450
aS'554.17'
p5451
aS'559.66'
p5452
aS'551.06'
p5453
aS'555.04'
p5454
aS'2977400'
p5455
aS'555.0'
p5456
aa(lp5457
S'2010-04-19'
p5458
aS'548.75'
p5459
aS'553.99'
p5460
aS'545.00'
p5461
aS'550.10'
p5462
aS'3894000'
p5463
aS'550.1'
p5464
aa(lp5465
S'2010-04-16'
p5466
aS'563.00'
p5467
aS'568.81'
p5468
aS'549.63'
p5469
aS'550.15'
p5470
aS'12235500'
p5471
aS'550.1'
p5472
aa(lp5473
S'2010-04-15'
p5474
aS'592.17'
p5475
aS'597.84'
p5476
aS'588.29'
p5477
aS'595.30'
p5478
aS'6761800'
p5479
aS'595.3'
p5480
aa(lp5481
S'2010-04-14'
p5482
aS'590.06'
p5483
aS'592.34'
p5484
aS'584.01'
p5485
aS'589.00'
p5486
aS'3402700'
p5487
aS'589.0'
p5488
aa(lp5489
S'2010-04-13'
p5490
aS'572.53'
p5491
aS'588.88'
p5492
aS'571.13'
p5493
aS'586.77'
p5494
aS'3912300'
p5495
aS'586.7'
p5496
aa(lp5497
S'2010-04-12'
p5498
aS'567.35'
p5499
aS'574.00'
p5500
aS'566.22'
p5501
aS'572.73'
p5502
aS'2352400'
p5503
aS'572.7'
p5504
aa(lp5505
S'2010-04-09'
p5506
aS'567.49'
p5507
aS'568.77'
p5508
aS'564.00'
p5509
aS'566.22'
p5510
aS'2056600'
p5511
aS'566.2'
p5512
aa(lp5513
S'2010-04-08'
p5514
aS'563.32'
p5515
aS'569.85'
p5516
aS'560.05'
p5517
aS'567.49'
p5518
aS'1947500'
p5519
aS'567.4'
p5520
aa(lp5521
S'2010-04-07'
p5522
aS'567.30'
p5523
aS'568.75'
p5524
aS'561.86'
p5525
aS'563.54'
p5526
aS'2581000'
p5527
aS'563.5'
p5528
aa(lp5529
S'2010-04-06'
p5530
aS'569.46'
p5531
aS'570.89'
p5532
aS'565.40'
p5533
aS'568.22'
p5534
aS'2060100'
p5535
aS'568.2'
p5536
aa(lp5537
S'2010-04-05'
p5538
aS'570.90'
p5539
aS'574.88'
p5540
aS'569.00'
p5541
aS'571.01'
p5542
aS'1901500'
p5543
aS'571.0'
p5544
aa(lp5545
S'2010-04-01'
p5546
aS'571.35'
p5547
aS'573.45'
p5548
aS'565.55'
p5549
aS'568.80'
p5550
aS'2102700'
p5551
aS'568.8'
p5552
aa(lp5553
S'2010-03-31'
p5554
aS'565.05'
p5555
aS'569.74'
p5556
aS'562.81'
p5557
aS'567.12'
p5558
aS'3030800'
p5559
aS'567.1'
p5560
aa(lp5561
S'2010-03-30'
p5562
aS'562.83'
p5563
aS'567.63'
p5564
aS'560.28'
p5565
aS'566.71'
p5566
aS'1977900'
p5567
aS'566.7'
p5568
aa(lp5569
S'2010-03-29'
p5570
aS'563.00'
p5571
aS'564.72'
p5572
aS'560.57'
p5573
aS'562.45'
p5574
aS'3104500'
p5575
aS'562.4'
p5576
aa(lp5577
S'2010-03-26'
p5578
aS'565.27'
p5579
aS'567.39'
p5580
aS'560.02'
p5581
aS'562.69'
p5582
aS'2696200'
p5583
aS'562.6'
p5584
aa(lp5585
S'2010-03-25'
p5586
aS'559.02'
p5587
aS'572.00'
p5588
aS'558.66'
p5589
aS'562.88'
p5590
aS'3930900'
p5591
aS'562.8'
p5592
aa(lp5593
S'2010-03-24'
p5594
aS'545.51'
p5595
aS'559.85'
p5596
aS'539.70'
p5597
aS'557.33'
p5598
aS'6565200'
p5599
aS'557.3'
p5600
aa(lp5601
S'2010-03-23'
p5602
aS'557.04'
p5603
aS'558.31'
p5604
aS'542.00'
p5605
aS'549.00'
p5606
aS'5501300'
p5607
aS'549.0'
p5608
aa(lp5609
S'2010-03-22'
p5610
aS'556.11'
p5611
aS'566.85'
p5612
aS'554.28'
p5613
aS'557.50'
p5614
aS'4004800'
p5615
aS'557.5'
p5616
aa(lp5617
S'2010-03-19'
p5618
aS'566.23'
p5619
aS'568.00'
p5620
aS'557.28'
p5621
aS'560.00'
p5622
aS'4792400'
p5623
aS'560.0'
p5624
aa(lp5625
S'2010-03-18'
p5626
aS'564.72'
p5627
aS'568.44'
p5628
aS'562.96'
p5629
aS'566.40'
p5630
aS'1777200'
p5631
aS'566.4'
p5632
aa(lp5633
S'2010-03-17'
p5634
aS'568.30'
p5635
aS'571.45'
p5636
aS'564.25'
p5637
aS'565.56'
p5638
aS'3321600'
p5639
aS'565.5'
p5640
aa(lp5641
S'2010-03-16'
p5642
aS'561.83'
p5643
aS'568.42'
p5644
aS'560.76'
p5645
aS'565.20'
p5646
aS'3431500'
p5647
aS'565.2'
p5648
aa(lp5649
S'2010-03-15'
p5650
aS'566.68'
p5651
aS'569.45'
p5652
aS'556.00'
p5653
aS'563.18'
p5654
aS'4653900'
p5655
aS'563.1'
p5656
aa(lp5657
S'2010-03-12'
p5658
aS'588.14'
p5659
aS'588.28'
p5660
aS'579.16'
p5661
aS'579.54'
p5662
aS'2753400'
p5663
aS'579.5'
p5664
aa(lp5665
S'2010-03-11'
p5666
aS'574.26'
p5667
aS'586.21'
p5668
aS'574.20'
p5669
aS'581.14'
p5670
aS'4233300'
p5671
aS'581.1'
p5672
aa(lp5673
S'2010-03-10'
p5674
aS'563.76'
p5675
aS'578.50'
p5676
aS'562.21'
p5677
aS'576.45'
p5678
aS'5654900'
p5679
aS'576.4'
p5680
aa(lp5681
S'2010-03-09'
p5682
aS'559.85'
p5683
aS'564.66'
p5684
aS'556.50'
p5685
aS'560.19'
p5686
aS'3176600'
p5687
aS'560.1'
p5688
aa(lp5689
S'2010-03-08'
p5690
aS'564.78'
p5691
aS'565.18'
p5692
aS'561.01'
p5693
aS'562.48'
p5694
aS'2386400'
p5695
aS'562.4'
p5696
aa(lp5697
S'2010-03-05'
p5698
aS'561.35'
p5699
aS'567.67'
p5700
aS'559.90'
p5701
aS'564.21'
p5702
aS'3912200'
p5703
aS'564.2'
p5704
aa(lp5705
S'2010-03-04'
p5706
aS'546.50'
p5707
aS'556.13'
p5708
aS'546.20'
p5709
aS'554.59'
p5710
aS'3183800'
p5711
aS'554.5'
p5712
aa(lp5713
S'2010-03-03'
p5714
aS'542.36'
p5715
aS'548.12'
p5716
aS'539.25'
p5717
aS'545.32'
p5718
aS'3089400'
p5719
aS'545.3'
p5720
aa(lp5721
S'2010-03-02'
p5722
aS'535.48'
p5723
aS'545.66'
p5724
aS'535.01'
p5725
aS'541.06'
p5726
aS'4356800'
p5727
aS'541.0'
p5728
aa(lp5729
S'2010-03-01'
p5730
aS'529.20'
p5731
aS'533.29'
p5732
aS'527.74'
p5733
aS'532.69'
p5734
aS'2237900'
p5735
aS'532.6'
p5736
aa(lp5737
S'2010-02-26'
p5738
aS'527.42'
p5739
aS'531.75'
p5740
aS'523.48'
p5741
aS'526.80'
p5742
aS'2049300'
p5743
aS'526.8'
p5744
aa(lp5745
S'2010-02-25'
p5746
aS'527.12'
p5747
aS'528.49'
p5748
aS'520.00'
p5749
aS'526.43'
p5750
aS'3309200'
p5751
aS'526.4'
p5752
aa(lp5753
S'2010-02-24'
p5754
aS'533.98'
p5755
aS'538.44'
p5756
aS'530.51'
p5757
aS'531.47'
p5758
aS'2326600'
p5759
aS'531.4'
p5760
aa(lp5761
S'2010-02-23'
p5762
aS'543.00'
p5763
aS'543.63'
p5764
aS'532.29'
p5765
aS'535.07'
p5766
aS'2872600'
p5767
aS'535.0'
p5768
aa(lp5769
S'2010-02-22'
p5770
aS'547.35'
p5771
aS'547.50'
p5772
aS'541.00'
p5773
aS'542.80'
p5774
aS'2144600'
p5775
aS'542.8'
p5776
aa(lp5777
S'2010-02-19'
p5778
aS'540.53'
p5779
aS'544.03'
p5780
aS'539.70'
p5781
aS'540.76'
p5782
aS'2553100'
p5783
aS'540.7'
p5784
aa(lp5785
S'2010-02-18'
p5786
aS'537.54'
p5787
aS'545.01'
p5788
aS'536.14'
p5789
aS'543.22'
p5790
aS'2336900'
p5791
aS'543.2'
p5792
aa(lp5793
S'2010-02-17'
p5794
aS'542.00'
p5795
aS'543.40'
p5796
aS'537.61'
p5797
aS'538.21'
p5798
aS'2029700'
p5799
aS'538.2'
p5800
aa(lp5801
S'2010-02-16'
p5802
aS'536.87'
p5803
aS'544.13'
p5804
aS'534.30'
p5805
aS'541.30'
p5806
aS'3654400'
p5807
aS'541.3'
p5808
aa(lp5809
S'2010-02-12'
p5810
aS'532.97'
p5811
aS'537.15'
p5812
aS'530.50'
p5813
aS'533.12'
p5814
aS'2279700'
p5815
aS'533.1'
p5816
aa(lp5817
S'2010-02-11'
p5818
aS'533.32'
p5819
aS'540.49'
p5820
aS'529.50'
p5821
aS'536.40'
p5822
aS'2410000'
p5823
aS'536.4'
p5824
aa(lp5825
S'2010-02-10'
p5826
aS'534.07'
p5827
aS'537.79'
p5828
aS'527.69'
p5829
aS'534.45'
p5830
aS'2674500'
p5831
aS'534.4'
p5832
aa(lp5833
S'2010-02-09'
p5834
aS'539.54'
p5835
aS'541.53'
p5836
aS'535.07'
p5837
aS'536.44'
p5838
aS'2819600'
p5839
aS'536.4'
p5840
aa(lp5841
S'2010-02-08'
p5842
aS'532.50'
p5843
aS'542.00'
p5844
aS'531.53'
p5845
aS'533.47'
p5846
aS'2694300'
p5847
aS'533.4'
p5848
aa(lp5849
S'2010-02-05'
p5850
aS'528.40'
p5851
aS'533.50'
p5852
aS'522.46'
p5853
aS'531.29'
p5854
aS'3156000'
p5855
aS'531.2'
p5856
aa(lp5857
S'2010-02-04'
p5858
aS'537.00'
p5859
aS'538.00'
p5860
aS'525.56'
p5861
aS'526.78'
p5862
aS'3377700'
p5863
aS'526.7'
p5864
aa(lp5865
S'2010-02-03'
p5866
aS'528.67'
p5867
aS'542.10'
p5868
aS'528.23'
p5869
aS'540.82'
p5870
aS'2999100'
p5871
aS'540.8'
p5872
aa(lp5873
S'2010-02-02'
p5874
aS'534.96'
p5875
aS'534.96'
p5876
aS'527.61'
p5877
aS'531.12'
p5878
aS'4096200'
p5879
aS'531.1'
p5880
aa(lp5881
S'2010-02-01'
p5882
aS'534.60'
p5883
aS'535.81'
p5884
aS'530.30'
p5885
aS'533.02'
p5886
aS'2250800'
p5887
aS'533.0'
p5888
aa(lp5889
S'2010-01-29'
p5890
aS'538.49'
p5891
aS'540.99'
p5892
aS'525.61'
p5893
aS'529.94'
p5894
aS'4140500'
p5895
aS'529.9'
p5896
aa(lp5897
S'2010-01-28'
p5898
aS'544.49'
p5899
aS'547.00'
p5900
aS'530.60'
p5901
aS'534.29'
p5902
aS'3229100'
p5903
aS'534.2'
p5904
aa(lp5905
S'2010-01-27'
p5906
aS'541.27'
p5907
aS'547.65'
p5908
aS'535.31'
p5909
aS'542.10'
p5910
aS'3964400'
p5911
aS'542.1'
p5912
aa(lp5913
S'2010-01-26'
p5914
aS'537.97'
p5915
aS'549.60'
p5916
aS'536.29'
p5917
aS'542.42'
p5918
aS'4355500'
p5919
aS'542.4'
p5920
aa(lp5921
S'2010-01-25'
p5922
aS'546.59'
p5923
aS'549.88'
p5924
aS'535.51'
p5925
aS'540.00'
p5926
aS'4419900'
p5927
aS'540.0'
p5928
aa(lp5929
S'2010-01-22'
p5930
aS'564.50'
p5931
aS'570.60'
p5932
aS'534.86'
p5933
aS'550.01'
p5934
aS'6800400'
p5935
aS'550.0'
p5936
aa(lp5937
S'2010-01-21'
p5938
aS'583.44'
p5939
aS'586.82'
p5940
aS'572.25'
p5941
aS'582.98'
p5942
aS'6307700'
p5943
aS'582.9'
p5944
aa(lp5945
S'2010-01-20'
p5946
aS'585.98'
p5947
aS'585.98'
p5948
aS'575.29'
p5949
aS'580.41'
p5950
aS'3250700'
p5951
aS'580.4'
p5952
aa(lp5953
S'2010-01-19'
p5954
aS'581.20'
p5955
aS'590.42'
p5956
aS'576.29'
p5957
aS'587.62'
p5958
aS'4316700'
p5959
aS'587.6'
p5960
aa(lp5961
S'2010-01-15'
p5962
aS'593.34'
p5963
aS'593.56'
p5964
aS'578.04'
p5965
aS'580.00'
p5966
aS'5434500'
p5967
aS'580.0'
p5968
aa(lp5969
S'2010-01-14'
p5970
aS'583.90'
p5971
aS'594.20'
p5972
aS'582.81'
p5973
aS'589.85'
p5974
aS'4240100'
p5975
aS'589.8'
p5976
aa(lp5977
S'2010-01-13'
p5978
aS'576.49'
p5979
aS'588.38'
p5980
aS'573.90'
p5981
aS'587.09'
p5982
aS'6496600'
p5983
aS'587.0'
p5984
aa(lp5985
S'2010-01-12'
p5986
aS'597.65'
p5987
aS'598.16'
p5988
aS'588.00'
p5989
aS'590.48'
p5990
aS'4853300'
p5991
aS'590.4'
p5992
aa(lp5993
S'2010-01-11'
p5994
aS'604.46'
p5995
aS'604.46'
p5996
aS'594.04'
p5997
aS'601.11'
p5998
aS'7212900'
p5999
aS'601.1'
p6000
aa(lp6001
S'2010-01-08'
p6002
aS'592.00'
p6003
aS'603.25'
p6004
aS'589.11'
p6005
aS'602.02'
p6006
aS'4724300'
p6007
aS'602.0'
p6008
aa(lp6009
S'2010-01-07'
p6010
aS'609.40'
p6011
aS'610.00'
p6012
aS'592.65'
p6013
aS'594.10'
p6014
aS'6414300'
p6015
aS'594.1'
p6016
aa(lp6017
S'2010-01-06'
p6018
aS'625.86'
p6019
aS'625.86'
p6020
aS'606.36'
p6021
aS'608.26'
p6022
aS'3978700'
p6023
aS'608.2'
p6024
aa(lp6025
S'2010-01-05'
p6026
aS'627.18'
p6027
aS'627.84'
p6028
aS'621.54'
p6029
aS'623.99'
p6030
aS'3004700'
p6031
aS'623.9'
p6032
aa(lp6033
S'2010-01-04'
p6034
aS'626.95'
p6035
aS'629.51'
p6036
aS'624.24'
p6037
aS'626.75'
p6038
aS'1956200'
p6039
aS'626.7'
p6040
aa.