(lp0
(lp1
S'Date'
p2
aS'Open'
p3
aS'High'
p4
aS'Low'
p5
aS'Close'
p6
aS'Volume'
p7
aS'Adj Clos'
p8
aa(lp9
S'2012-01-31'
p10
aS'193.09'
p11
aS'193.10'
p12
aS'191.00'
p13
aS'192.60'
p14
aS'4826800'
p15
aS'189.4'
p16
aa(lp17
S'2012-01-30'
p18
aS'189.39'
p19
aS'192.73'
p20
aS'188.22'
p21
aS'192.50'
p22
aS'4359000'
p23
aS'189.3'
p24
aa(lp25
S'2012-01-27'
p26
aS'190.01'
p27
aS'191.77'
p28
aS'189.81'
p29
aS'190.46'
p30
aS'3360400'
p31
aS'187.3'
p32
aa(lp33
S'2012-01-26'
p34
aS'191.79'
p35
aS'192.79'
p36
aS'190.47'
p37
aS'190.98'
p38
aS'4004700'
p39
aS'187.8'
p40
aa(lp41
S'2012-01-25'
p42
aS'191.33'
p43
aS'192.24'
p44
aS'189.61'
p45
aS'191.73'
p46
aS'4359700'
p47
aS'188.5'
p48
aa(lp49
S'2012-01-24'
p50
aS'188.63'
p51
aS'192.30'
p52
aS'188.52'
p53
aS'191.93'
p54
aS'5345700'
p55
aS'188.7'
p56
aa(lp57
S'2012-01-23'
p58
aS'187.91'
p59
aS'190.52'
p60
aS'187.67'
p61
aS'189.98'
p62
aS'5751700'
p63
aS'186.8'
p64
aa(lp65
S'2012-01-20'
p66
aS'185.77'
p67
aS'188.97'
p68
aS'184.75'
p69
aS'188.52'
p70
aS'12849700'
p71
aS'185.4'
p72
aa(lp73
S'2012-01-19'
p74
aS'181.79'
p75
aS'182.36'
p76
aS'180.35'
p77
aS'180.52'
p78
aS'8567200'
p79
aS'177.5'
p80
aa(lp81
S'2012-01-18'
p82
aS'179.83'
p83
aS'181.60'
p84
aS'179.50'
p85
aS'181.07'
p86
aS'4600600'
p87
aS'178.0'
p88
aa(lp89
S'2012-01-17'
p90
aS'180.36'
p91
aS'182.00'
p92
aS'179.32'
p93
aS'180.00'
p94
aS'6003400'
p95
aS'177.0'
p96
aa(lp97
S'2012-01-13'
p98
aS'179.48'
p99
aS'179.61'
p100
aS'177.35'
p101
aS'179.16'
p102
aS'5279200'
p103
aS'176.1'
p104
aa(lp105
S'2012-01-12'
p106
aS'181.86'
p107
aS'181.91'
p108
aS'178.38'
p109
aS'180.55'
p110
aS'6881000'
p111
aS'177.5'
p112
aa(lp113
S'2012-01-11'
p114
aS'180.73'
p115
aS'182.81'
p116
aS'180.50'
p117
aS'182.32'
p118
aS'4110800'
p119
aS'179.3'
p120
aa(lp121
S'2012-01-10'
p122
aS'183.23'
p123
aS'183.72'
p124
aS'181.20'
p125
aS'181.31'
p126
aS'5161000'
p127
aS'178.3'
p128
aa(lp129
S'2012-01-09'
p130
aS'182.20'
p131
aS'182.27'
p132
aS'180.27'
p133
aS'181.59'
p134
aS'5201200'
p135
aS'178.5'
p136
aa(lp137
S'2012-01-06'
p138
aS'184.39'
p139
aS'184.48'
p140
aS'182.31'
p141
aS'182.54'
p142
aS'4897100'
p143
aS'179.5'
p144
aa(lp145
S'2012-01-05'
p146
aS'184.81'
p147
aS'185.03'
p148
aS'183.10'
p149
aS'184.66'
p150
aS'4463100'
p151
aS'181.6'
p152
aa(lp153
S'2012-01-04'
p154
aS'185.57'
p155
aS'186.33'
p156
aS'184.94'
p157
aS'185.54'
p158
aS'4346700'
p159
aS'182.4'
p160
aa(lp161
S'2012-01-03'
p162
aS'186.73'
p163
aS'188.71'
p164
aS'186.00'
p165
aS'186.30'
p166
aS'5646000'
p167
aS'183.2'
p168
aa.