(lp0
(lp1
S'Date'
p2
aS'Open'
p3
aS'High'
p4
aS'Low'
p5
aS'Close'
p6
aS'Volume'
p7
aS'Adj Clos'
p8
aa(lp9
S'2012-01-31'
p10
aS'15.54'
p11
aS'15.62'
p12
aS'15.41'
p13
aS'15.47'
p14
aS'10725500'
p15
aS'15.4'
p16
aa(lp17
S'2012-01-30'
p18
aS'15.61'
p19
aS'15.65'
p20
aS'15.50'
p21
aS'15.55'
p22
aS'11076900'
p23
aS'15.5'
p24
aa(lp25
S'2012-01-27'
p26
aS'15.50'
p27
aS'15.80'
p28
aS'15.46'
p29
aS'15.74'
p30
aS'10859000'
p31
aS'15.7'
p32
aa(lp33
S'2012-01-26'
p34
aS'15.63'
p35
aS'15.69'
p36
aS'15.42'
p37
aS'15.53'
p38
aS'15408400'
p39
aS'15.5'
p40
aa(lp41
S'2012-01-25'
p42
aS'15.60'
p43
aS'15.71'
p44
aS'15.46'
p45
aS'15.56'
p46
aS'23349500'
p47
aS'15.5'
p48
aa(lp49
S'2012-01-24'
p50
aS'15.57'
p51
aS'15.81'
p52
aS'15.55'
p53
aS'15.69'
p54
aS'17152200'
p55
aS'15.6'
p56
aa(lp57
S'2012-01-23'
p58
aS'15.85'
p59
aS'15.93'
p60
aS'15.64'
p61
aS'15.68'
p62
aS'17864500'
p63
aS'15.6'
p64
aa(lp65
S'2012-01-20'
p66
aS'16.11'
p67
aS'16.11'
p68
aS'15.85'
p69
aS'15.96'
p70
aS'22003800'
p71
aS'15.9'
p72
aa(lp73
S'2012-01-19'
p74
aS'15.90'
p75
aS'16.15'
p76
aS'15.89'
p77
aS'16.12'
p78
aS'22645000'
p79
aS'16.1'
p80
aa(lp81
S'2012-01-18'
p82
aS'15.87'
p83
aS'16.00'
p84
aS'15.69'
p85
aS'15.92'
p86
aS'35695800'
p87
aS'15.9'
p88
aa(lp89
S'2012-01-17'
p90
aS'15.63'
p91
aS'15.66'
p92
aS'15.39'
p93
aS'15.43'
p94
aS'15334200'
p95
aS'15.4'
p96
aa(lp97
S'2012-01-13'
p98
aS'15.65'
p99
aS'15.67'
p100
aS'15.43'
p101
aS'15.48'
p102
aS'11704700'
p103
aS'15.4'
p104
aa(lp105
S'2012-01-12'
p106
aS'15.58'
p107
aS'15.73'
p108
aS'15.45'
p109
aS'15.66'
p110
aS'12664600'
p111
aS'15.6'
p112
aa(lp113
S'2012-01-11'
p114
aS'15.56'
p115
aS'15.62'
p116
aS'15.35'
p117
aS'15.53'
p118
aS'10800800'
p119
aS'15.5'
p120
aa(lp121
S'2012-01-10'
p122
aS'15.57'
p123
aS'15.71'
p124
aS'15.50'
p125
aS'15.51'
p126
aS'14048800'
p127
aS'15.5'
p128
aa(lp129
S'2012-01-09'
p130
aS'15.59'
p131
aS'15.61'
p132
aS'15.35'
p133
aS'15.46'
p134
aS'13191900'
p135
aS'15.4'
p136
aa(lp137
S'2012-01-06'
p138
aS'15.64'
p139
aS'15.66'
p140
aS'15.40'
p141
aS'15.52'
p142
aS'13308400'
p143
aS'15.5'
p144
aa(lp145
S'2012-01-05'
p146
aS'15.60'
p147
aS'15.69'
p148
aS'15.44'
p149
aS'15.64'
p150
aS'19422800'
p151
aS'15.6'
p152
aa(lp153
S'2012-01-04'
p154
aS'16.12'
p155
aS'16.16'
p156
aS'15.74'
p157
aS'15.78'
p158
aS'35655300'
p159
aS'15.7'
p160
aa(lp161
S'2012-01-03'
p162
aS'16.27'
p163
aS'16.39'
p164
aS'16.20'
p165
aS'16.29'
p166
aS'19708600'
p167
aS'16.2'
p168
aa.