(lp0
(lp1
S'Date'
p2
aS'Open'
p3
aS'High'
p4
aS'Low'
p5
aS'Close'
p6
aS'Volume'
p7
aS'Adj Clos'
p8
aa(lp9
S'2012-12-31'
p10
aS'19.43'
p11
aS'19.97'
p12
aS'19.40'
p13
aS'19.90'
p14
aS'20645100'
p15
aS'19.9'
p16
aa(lp17
S'2012-12-28'
p18
aS'19.44'
p19
aS'19.57'
p20
aS'19.28'
p21
aS'19.50'
p22
aS'16667800'
p23
aS'19.5'
p24
aa(lp25
S'2012-12-27'
p26
aS'19.54'
p27
aS'19.67'
p28
aS'19.44'
p29
aS'19.60'
p30
aS'13999400'
p31
aS'19.6'
p32
aa(lp33
S'2012-12-26'
p34
aS'19.70'
p35
aS'19.75'
p36
aS'19.52'
p37
aS'19.57'
p38
aS'9376200'
p39
aS'19.5'
p40
aa(lp41
S'2012-12-24'
p42
aS'19.45'
p43
aS'19.66'
p44
aS'19.38'
p45
aS'19.65'
p46
aS'11431500'
p47
aS'19.6'
p48
aa(lp49
S'2012-12-21'
p50
aS'19.49'
p51
aS'19.49'
p52
aS'19.23'
p53
aS'19.35'
p54
aS'32727700'
p55
aS'19.3'
p56
aa(lp57
S'2012-12-20'
p58
aS'19.58'
p59
aS'19.71'
p60
aS'19.41'
p61
aS'19.69'
p62
aS'24572800'
p63
aS'19.6'
p64
aa(lp65
S'2012-12-19'
p66
aS'19.59'
p67
aS'19.69'
p68
aS'19.58'
p69
aS'19.60'
p70
aS'12351400'
p71
aS'19.6'
p72
aa(lp73
S'2012-12-18'
p74
aS'19.72'
p75
aS'19.76'
p76
aS'19.58'
p77
aS'19.62'
p78
aS'17094600'
p79
aS'19.6'
p80
aa(lp81
S'2012-12-17'
p82
aS'19.72'
p83
aS'19.74'
p84
aS'19.53'
p85
aS'19.69'
p86
aS'14760300'
p87
aS'19.6'
p88
aa(lp89
S'2012-12-14'
p90
aS'19.40'
p91
aS'19.72'
p92
aS'19.40'
p93
aS'19.64'
p94
aS'19580400'
p95
aS'19.6'
p96
aa(lp97
S'2012-12-13'
p98
aS'19.44'
p99
aS'19.54'
p100
aS'19.26'
p101
aS'19.35'
p102
aS'20454600'
p103
aS'19.3'
p104
aa(lp105
S'2012-12-12'
p106
aS'19.56'
p107
aS'19.60'
p108
aS'19.34'
p109
aS'19.38'
p110
aS'22899200'
p111
aS'19.3'
p112
aa(lp113
S'2012-12-11'
p114
aS'19.53'
p115
aS'19.63'
p116
aS'19.43'
p117
aS'19.52'
p118
aS'19049500'
p119
aS'19.5'
p120
aa(lp121
S'2012-12-10'
p122
aS'19.18'
p123
aS'19.47'
p124
aS'19.15'
p125
aS'19.43'
p126
aS'24127800'
p127
aS'19.4'
p128
aa(lp129
S'2012-12-07'
p130
aS'19.16'
p131
aS'19.30'
p132
aS'19.06'
p133
aS'19.20'
p134
aS'19159700'
p135
aS'19.2'
p136
aa(lp137
S'2012-12-06'
p138
aS'18.78'
p139
aS'19.28'
p140
aS'18.77'
p141
aS'19.20'
p142
aS'25312800'
p143
aS'19.2'
p144
aa(lp145
S'2012-12-05'
p146
aS'18.98'
p147
aS'19.03'
p148
aS'18.77'
p149
aS'18.89'
p150
aS'24739100'
p151
aS'18.8'
p152
aa(lp153
S'2012-12-04'
p154
aS'18.64'
p155
aS'18.96'
p156
aS'18.60'
p157
aS'18.93'
p158
aS'30725600'
p159
aS'18.9'
p160
aa(lp161
S'2012-12-03'
p162
aS'18.55'
p163
aS'18.84'
p164
aS'18.34'
p165
aS'18.55'
p166
aS'29603000'
p167
aS'18.5'
p168
aa(lp169
S'2012-11-30'
p170
aS'18.90'
p171
aS'18.95'
p172
aS'18.69'
p173
aS'18.77'
p174
aS'24075300'
p175
aS'18.7'
p176
aa(lp177
S'2012-11-29'
p178
aS'18.95'
p179
aS'19.03'
p180
aS'18.85'
p181
aS'18.87'
p182
aS'27259800'
p183
aS'18.8'
p184
aa(lp185
S'2012-11-28'
p186
aS'18.78'
p187
aS'18.95'
p188
aS'18.53'
p189
aS'18.91'
p190
aS'30313200'
p191
aS'18.9'
p192
aa(lp193
S'2012-11-27'
p194
aS'18.87'
p195
aS'19.16'
p196
aS'18.80'
p197
aS'18.93'
p198
aS'29330500'
p199
aS'18.9'
p200
aa(lp201
S'2012-11-26'
p202
aS'18.88'
p203
aS'19.00'
p204
aS'18.70'
p205
aS'18.76'
p206
aS'34042700'
p207
aS'18.7'
p208
aa(lp209
S'2012-11-23'
p210
aS'18.50'
p211
aS'18.59'
p212
aS'18.40'
p213
aS'18.57'
p214
aS'7714800'
p215
aS'18.5'
p216
aa(lp217
S'2012-11-21'
p218
aS'18.24'
p219
aS'18.50'
p220
aS'18.20'
p221
aS'18.40'
p222
aS'19584800'
p223
aS'18.4'
p224
aa(lp225
S'2012-11-20'
p226
aS'18.44'
p227
aS'18.50'
p228
aS'18.19'
p229
aS'18.24'
p230
aS'26228200'
p231
aS'18.2'
p232
aa(lp233
S'2012-11-19'
p234
aS'18.02'
p235
aS'18.37'
p236
aS'17.87'
p237
aS'18.36'
p238
aS'32995900'
p239
aS'18.3'
p240
aa(lp241
S'2012-11-16'
p242
aS'17.91'
p243
aS'18.02'
p244
aS'17.76'
p245
aS'17.86'
p246
aS'31014300'
p247
aS'17.8'
p248
aa(lp249
S'2012-11-15'
p250
aS'17.82'
p251
aS'18.16'
p252
aS'17.74'
p253
aS'17.89'
p254
aS'35659000'
p255
aS'17.8'
p256
aa(lp257
S'2012-11-14'
p258
aS'17.90'
p259
aS'18.08'
p260
aS'17.75'
p261
aS'17.83'
p262
aS'36398900'
p263
aS'17.8'
p264
aa(lp265
S'2012-11-13'
p266
aS'17.42'
p267
aS'17.85'
p268
aS'17.38'
p269
aS'17.85'
p270
aS'29016900'
p271
aS'17.8'
p272
aa(lp273
S'2012-11-12'
p274
aS'17.18'
p275
aS'17.56'
p276
aS'17.17'
p277
aS'17.51'
p278
aS'22361500'
p279
aS'17.5'
p280
aa(lp281
S'2012-11-09'
p282
aS'17.22'
p283
aS'17.52'
p284
aS'17.18'
p285
aS'17.26'
p286
aS'23832100'
p287
aS'17.2'
p288
aa(lp289
S'2012-11-08'
p290
aS'17.30'
p291
aS'17.50'
p292
aS'17.23'
p293
aS'17.24'
p294
aS'20322000'
p295
aS'17.2'
p296
aa(lp297
S'2012-11-07'
p298
aS'17.24'
p299
aS'17.56'
p300
aS'17.18'
p301
aS'17.39'
p302
aS'24344200'
p303
aS'17.3'
p304
aa(lp305
S'2012-11-06'
p306
aS'17.44'
p307
aS'17.53'
p308
aS'17.32'
p309
aS'17.46'
p310
aS'26321200'
p311
aS'17.4'
p312
aa(lp313
S'2012-11-05'
p314
aS'17.10'
p315
aS'17.43'
p316
aS'17.01'
p317
aS'17.37'
p318
aS'31854300'
p319
aS'17.3'
p320
aa(lp321
S'2012-11-02'
p322
aS'17.00'
p323
aS'17.14'
p324
aS'16.95'
p325
aS'17.11'
p326
aS'27568700'
p327
aS'17.1'
p328
aa(lp329
S'2012-11-01'
p330
aS'16.90'
p331
aS'17.05'
p332
aS'16.86'
p333
aS'16.95'
p334
aS'19764900'
p335
aS'16.9'
p336
aa(lp337
S'2012-10-31'
p338
aS'16.81'
p339
aS'16.89'
p340
aS'16.60'
p341
aS'16.84'
p342
aS'21058800'
p343
aS'16.8'
p344
aa(lp345
S'2012-10-26'
p346
aS'16.54'
p347
aS'16.82'
p348
aS'16.52'
p349
aS'16.79'
p350
aS'23374200'
p351
aS'16.7'
p352
aa(lp353
S'2012-10-25'
p354
aS'16.72'
p355
aS'16.77'
p356
aS'16.49'
p357
aS'16.61'
p358
aS'23080800'
p359
aS'16.6'
p360
aa(lp361
S'2012-10-24'
p362
aS'16.78'
p363
aS'16.80'
p364
aS'16.48'
p365
aS'16.55'
p366
aS'25119700'
p367
aS'16.5'
p368
aa(lp369
S'2012-10-23'
p370
aS'16.53'
p371
aS'16.79'
p372
aS'16.26'
p373
aS'16.67'
p374
aS'71575400'
p375
aS'16.6'
p376
aa(lp377
S'2012-10-22'
p378
aS'15.81'
p379
aS'15.95'
p380
aS'15.74'
p381
aS'15.77'
p382
aS'32288000'
p383
aS'15.7'
p384
aa(lp385
S'2012-10-19'
p386
aS'16.00'
p387
aS'16.03'
p388
aS'15.83'
p389
aS'15.84'
p390
aS'32893100'
p391
aS'15.8'
p392
aa(lp393
S'2012-10-18'
p394
aS'16.23'
p395
aS'16.24'
p396
aS'15.83'
p397
aS'16.00'
p398
aS'26361000'
p399
aS'16.0'
p400
aa(lp401
S'2012-10-17'
p402
aS'15.85'
p403
aS'16.12'
p404
aS'15.83'
p405
aS'16.09'
p406
aS'19570500'
p407
aS'16.0'
p408
aa(lp409
S'2012-10-16'
p410
aS'15.82'
p411
aS'15.98'
p412
aS'15.76'
p413
aS'15.92'
p414
aS'20574100'
p415
aS'15.9'
p416
aa(lp417
S'2012-10-15'
p418
aS'15.85'
p419
aS'15.87'
p420
aS'15.65'
p421
aS'15.68'
p422
aS'20786500'
p423
aS'15.6'
p424
aa(lp425
S'2012-10-12'
p426
aS'15.90'
p427
aS'16.02'
p428
aS'15.86'
p429
aS'15.88'
p430
aS'12239100'
p431
aS'15.8'
p432
aa(lp433
S'2012-10-11'
p434
aS'15.94'
p435
aS'16.02'
p436
aS'15.84'
p437
aS'15.92'
p438
aS'12973000'
p439
aS'15.9'
p440
aa(lp441
S'2012-10-10'
p442
aS'15.83'
p443
aS'15.99'
p444
aS'15.80'
p445
aS'15.83'
p446
aS'14546300'
p447
aS'15.8'
p448
aa(lp449
S'2012-10-09'
p450
aS'16.03'
p451
aS'16.05'
p452
aS'15.81'
p453
aS'15.85'
p454
aS'14110000'
p455
aS'15.8'
p456
aa(lp457
S'2012-10-08'
p458
aS'16.02'
p459
aS'16.16'
p460
aS'16.00'
p461
aS'16.03'
p462
aS'11736700'
p463
aS'16.0'
p464
aa(lp465
S'2012-10-05'
p466
aS'16.27'
p467
aS'16.38'
p468
aS'16.09'
p469
aS'16.09'
p470
aS'9240400'
p471
aS'16.0'
p472
aa(lp473
S'2012-10-04'
p474
aS'16.22'
p475
aS'16.35'
p476
aS'16.15'
p477
aS'16.27'
p478
aS'17283900'
p479
aS'16.2'
p480
aa(lp481
S'2012-10-03'
p482
aS'16.00'
p483
aS'16.24'
p484
aS'15.99'
p485
aS'16.21'
p486
aS'20399000'
p487
aS'16.2'
p488
aa(lp489
S'2012-10-02'
p490
aS'16.03'
p491
aS'16.04'
p492
aS'15.88'
p493
aS'15.94'
p494
aS'13696700'
p495
aS'15.9'
p496
aa(lp497
S'2012-10-01'
p498
aS'16.00'
p499
aS'16.09'
p500
aS'15.77'
p501
aS'15.83'
p502
aS'20601900'
p503
aS'15.8'
p504
aa(lp505
S'2012-09-28'
p506
aS'16.01'
p507
aS'16.09'
p508
aS'15.93'
p509
aS'15.98'
p510
aS'19744300'
p511
aS'15.9'
p512
aa(lp513
S'2012-09-27'
p514
aS'15.90'
p515
aS'16.20'
p516
aS'15.79'
p517
aS'16.04'
p518
aS'24416200'
p519
aS'16.0'
p520
aa(lp521
S'2012-09-26'
p522
aS'15.71'
p523
aS'15.81'
p524
aS'15.55'
p525
aS'15.61'
p526
aS'12784100'
p527
aS'15.6'
p528
aa(lp529
S'2012-09-25'
p530
aS'16.09'
p531
aS'16.09'
p532
aS'15.67'
p533
aS'15.68'
p534
aS'22966300'
p535
aS'15.6'
p536
aa(lp537
S'2012-09-24'
p538
aS'15.69'
p539
aS'16.04'
p540
aS'15.60'
p541
aS'16.00'
p542
aS'23019900'
p543
aS'16.0'
p544
aa(lp545
S'2012-09-21'
p546
aS'15.72'
p547
aS'15.82'
p548
aS'15.66'
p549
aS'15.74'
p550
aS'49167000'
p551
aS'15.7'
p552
aa(lp553
S'2012-09-20'
p554
aS'15.76'
p555
aS'15.86'
p556
aS'15.65'
p557
aS'15.79'
p558
aS'18169800'
p559
aS'15.7'
p560
aa(lp561
S'2012-09-19'
p562
aS'15.96'
p563
aS'16.13'
p564
aS'15.84'
p565
aS'15.86'
p566
aS'30681100'
p567
aS'15.8'
p568
aa(lp569
S'2012-09-18'
p570
aS'15.65'
p571
aS'16.17'
p572
aS'15.60'
p573
aS'15.91'
p574
aS'42449600'
p575
aS'15.9'
p576
aa(lp577
S'2012-09-17'
p578
aS'15.81'
p579
aS'15.84'
p580
aS'15.63'
p581
aS'15.68'
p582
aS'11697700'
p583
aS'15.6'
p584
aa(lp585
S'2012-09-14'
p586
aS'15.70'
p587
aS'15.84'
p588
aS'15.62'
p589
aS'15.77'
p590
aS'17642600'
p591
aS'15.7'
p592
aa(lp593
S'2012-09-13'
p594
aS'15.38'
p595
aS'15.69'
p596
aS'15.37'
p597
aS'15.60'
p598
aS'12136300'
p599
aS'15.6'
p600
aa(lp601
S'2012-09-12'
p602
aS'15.30'
p603
aS'15.55'
p604
aS'15.28'
p605
aS'15.40'
p606
aS'22006000'
p607
aS'15.4'
p608
aa(lp609
S'2012-09-11'
p610
aS'15.09'
p611
aS'15.25'
p612
aS'15.06'
p613
aS'15.16'
p614
aS'8036400'
p615
aS'15.1'
p616
aa(lp617
S'2012-09-10'
p618
aS'15.19'
p619
aS'15.28'
p620
aS'15.11'
p621
aS'15.11'
p622
aS'10520100'
p623
aS'15.1'
p624
aa(lp625
S'2012-09-07'
p626
aS'15.12'
p627
aS'15.29'
p628
aS'15.10'
p629
aS'15.22'
p630
aS'12988700'
p631
aS'15.2'
p632
aa(lp633
S'2012-09-06'
p634
aS'15.13'
p635
aS'15.15'
p636
aS'14.96'
p637
aS'15.11'
p638
aS'18011600'
p639
aS'15.1'
p640
aa(lp641
S'2012-09-05'
p642
aS'14.86'
p643
aS'15.14'
p644
aS'14.85'
p645
aS'15.09'
p646
aS'21118800'
p647
aS'15.0'
p648
aa(lp649
S'2012-09-04'
p650
aS'14.64'
p651
aS'14.98'
p652
aS'14.59'
p653
aS'14.89'
p654
aS'18809200'
p655
aS'14.8'
p656
aa(lp657
S'2012-08-31'
p658
aS'14.79'
p659
aS'14.82'
p660
aS'14.59'
p661
aS'14.65'
p662
aS'11619700'
p663
aS'14.6'
p664
aa(lp665
S'2012-08-30'
p666
aS'14.81'
p667
aS'14.84'
p668
aS'14.64'
p669
aS'14.67'
p670
aS'10698800'
p671
aS'14.6'
p672
aa(lp673
S'2012-08-29'
p674
aS'14.73'
p675
aS'14.94'
p676
aS'14.70'
p677
aS'14.84'
p678
aS'21113600'
p679
aS'14.8'
p680
aa(lp681
S'2012-08-28'
p682
aS'14.84'
p683
aS'14.87'
p684
aS'14.69'
p685
aS'14.72'
p686
aS'12706400'
p687
aS'14.7'
p688
aa(lp689
S'2012-08-27'
p690
aS'14.92'
p691
aS'14.93'
p692
aS'14.77'
p693
aS'14.85'
p694
aS'10054000'
p695
aS'14.8'
p696
aa(lp697
S'2012-08-24'
p698
aS'14.82'
p699
aS'14.94'
p700
aS'14.77'
p701
aS'14.92'
p702
aS'8650400'
p703
aS'14.9'
p704
aa(lp705
S'2012-08-23'
p706
aS'14.90'
p707
aS'14.97'
p708
aS'14.82'
p709
aS'14.87'
p710
aS'12463000'
p711
aS'14.8'
p712
aa(lp713
S'2012-08-22'
p714
aS'14.95'
p715
aS'14.99'
p716
aS'14.86'
p717
aS'14.92'
p718
aS'9168400'
p719
aS'14.9'
p720
aa(lp721
S'2012-08-21'
p722
aS'14.95'
p723
aS'15.01'
p724
aS'14.88'
p725
aS'14.97'
p726
aS'27934700'
p727
aS'14.9'
p728
aa(lp729
S'2012-08-20'
p730
aS'14.99'
p731
aS'15.05'
p732
aS'14.88'
p733
aS'14.96'
p734
aS'11193900'
p735
aS'14.9'
p736
aa(lp737
S'2012-08-17'
p738
aS'15.02'
p739
aS'15.07'
p740
aS'14.85'
p741
aS'15.03'
p742
aS'19640700'
p743
aS'15.0'
p744
aa(lp745
S'2012-08-16'
p746
aS'14.81'
p747
aS'15.01'
p748
aS'14.75'
p749
aS'14.99'
p750
aS'24971900'
p751
aS'14.9'
p752
aa(lp753
S'2012-08-15'
p754
aS'14.77'
p755
aS'14.86'
p756
aS'14.65'
p757
aS'14.76'
p758
aS'20682900'
p759
aS'14.7'
p760
aa(lp761
S'2012-08-14'
p762
aS'15.04'
p763
aS'15.05'
p764
aS'14.69'
p765
aS'14.73'
p766
aS'29655200'
p767
aS'14.7'
p768
aa(lp769
S'2012-08-13'
p770
aS'15.03'
p771
aS'15.21'
p772
aS'15.00'
p773
aS'15.02'
p774
aS'20849400'
p775
aS'15.0'
p776
aa(lp777
S'2012-08-10'
p778
aS'15.25'
p779
aS'15.35'
p780
aS'15.01'
p781
aS'15.15'
p782
aS'61987300'
p783
aS'15.1'
p784
aa(lp785
S'2012-08-09'
p786
aS'16.16'
p787
aS'16.16'
p788
aS'15.98'
p789
aS'16.01'
p790
aS'8613100'
p791
aS'16.0'
p792
aa(lp793
S'2012-08-08'
p794
aS'16.15'
p795
aS'16.32'
p796
aS'16.09'
p797
aS'16.17'
p798
aS'7379000'
p799
aS'16.1'
p800
aa(lp801
S'2012-08-07'
p802
aS'16.09'
p803
aS'16.37'
p804
aS'16.07'
p805
aS'16.22'
p806
aS'17281700'
p807
aS'16.2'
p808
aa(lp809
S'2012-08-06'
p810
aS'16.00'
p811
aS'16.07'
p812
aS'15.95'
p813
aS'16.04'
p814
aS'8803900'
p815
aS'16.0'
p816
aa(lp817
S'2012-08-03'
p818
aS'15.89'
p819
aS'16.03'
p820
aS'15.82'
p821
aS'15.97'
p822
aS'9140800'
p823
aS'15.9'
p824
aa(lp825
S'2012-08-02'
p826
aS'15.86'
p827
aS'16.00'
p828
aS'15.64'
p829
aS'15.75'
p830
aS'12900500'
p831
aS'15.7'
p832
aa(lp833
S'2012-08-01'
p834
aS'15.86'
p835
aS'16.07'
p836
aS'15.83'
p837
aS'15.99'
p838
aS'14008000'
p839
aS'15.9'
p840
aa(lp841
S'2012-07-31'
p842
aS'16.00'
p843
aS'16.06'
p844
aS'15.81'
p845
aS'15.84'
p846
aS'13753800'
p847
aS'15.8'
p848
aa(lp849
S'2012-07-30'
p850
aS'16.15'
p851
aS'16.15'
p852
aS'15.90'
p853
aS'15.98'
p854
aS'10187600'
p855
aS'15.9'
p856
aa(lp857
S'2012-07-27'
p858
aS'15.88'
p859
aS'16.17'
p860
aS'15.84'
p861
aS'16.11'
p862
aS'14220800'
p863
aS'16.1'
p864
aa(lp865
S'2012-07-26'
p866
aS'15.69'
p867
aS'15.88'
p868
aS'15.62'
p869
aS'15.80'
p870
aS'11033300'
p871
aS'15.8'
p872
aa(lp873
S'2012-07-25'
p874
aS'15.52'
p875
aS'15.64'
p876
aS'15.40'
p877
aS'15.50'
p878
aS'15092000'
p879
aS'15.5'
p880
aa(lp881
S'2012-07-24'
p882
aS'15.74'
p883
aS'15.76'
p884
aS'15.23'
p885
aS'15.43'
p886
aS'19733400'
p887
aS'15.4'
p888
aa(lp889
S'2012-07-23'
p890
aS'15.70'
p891
aS'15.81'
p892
aS'15.59'
p893
aS'15.76'
p894
aS'14825800'
p895
aS'15.7'
p896
aa(lp897
S'2012-07-20'
p898
aS'15.75'
p899
aS'15.94'
p900
aS'15.68'
p901
aS'15.92'
p902
aS'16919700'
p903
aS'15.9'
p904
aa(lp905
S'2012-07-19'
p906
aS'15.71'
p907
aS'15.86'
p908
aS'15.64'
p909
aS'15.73'
p910
aS'15985300'
p911
aS'15.7'
p912
aa(lp913
S'2012-07-18'
p914
aS'15.64'
p915
aS'15.75'
p916
aS'15.51'
p917
aS'15.70'
p918
aS'19270600'
p919
aS'15.7'
p920
aa(lp921
S'2012-07-17'
p922
aS'15.85'
p923
aS'15.89'
p924
aS'15.42'
p925
aS'15.60'
p926
aS'30596300'
p927
aS'15.6'
p928
aa(lp929
S'2012-07-16'
p930
aS'15.69'
p931
aS'15.80'
p932
aS'15.60'
p933
aS'15.65'
p934
aS'14982900'
p935
aS'15.6'
p936
aa(lp937
S'2012-07-13'
p938
aS'15.70'
p939
aS'15.84'
p940
aS'15.69'
p941
aS'15.74'
p942
aS'11811600'
p943
aS'15.7'
p944
aa(lp945
S'2012-07-12'
p946
aS'15.63'
p947
aS'15.81'
p948
aS'15.54'
p949
aS'15.69'
p950
aS'18390200'
p951
aS'15.6'
p952
aa(lp953
S'2012-07-11'
p954
aS'15.82'
p955
aS'15.94'
p956
aS'15.68'
p957
aS'15.80'
p958
aS'16482300'
p959
aS'15.8'
p960
aa(lp961
S'2012-07-10'
p962
aS'15.83'
p963
aS'15.98'
p964
aS'15.71'
p965
aS'15.82'
p966
aS'15933900'
p967
aS'15.8'
p968
aa(lp969
S'2012-07-09'
p970
aS'15.78'
p971
aS'15.84'
p972
aS'15.70'
p973
aS'15.75'
p974
aS'10375900'
p975
aS'15.7'
p976
aa(lp977
S'2012-07-06'
p978
aS'15.80'
p979
aS'15.91'
p980
aS'15.68'
p981
aS'15.78'
p982
aS'12151600'
p983
aS'15.7'
p984
aa(lp985
S'2012-07-05'
p986
aS'15.90'
p987
aS'15.99'
p988
aS'15.81'
p989
aS'15.85'
p990
aS'11440800'
p991
aS'15.8'
p992
aa(lp993
S'2012-07-03'
p994
aS'15.83'
p995
aS'15.99'
p996
aS'15.82'
p997
aS'15.98'
p998
aS'8148400'
p999
aS'15.9'
p1000
aa(lp1001
S'2012-07-02'
p1002
aS'15.80'
p1003
aS'15.94'
p1004
aS'15.76'
p1005
aS'15.84'
p1006
aS'7226600'
p1007
aS'15.8'
p1008
aa(lp1009
S'2012-06-29'
p1010
aS'15.61'
p1011
aS'15.83'
p1012
aS'15.53'
p1013
aS'15.83'
p1014
aS'13501800'
p1015
aS'15.8'
p1016
aa(lp1017
S'2012-06-28'
p1018
aS'15.41'
p1019
aS'15.48'
p1020
aS'15.29'
p1021
aS'15.45'
p1022
aS'12479200'
p1023
aS'15.4'
p1024
aa(lp1025
S'2012-06-27'
p1026
aS'15.41'
p1027
aS'15.63'
p1028
aS'15.38'
p1029
aS'15.52'
p1030
aS'11261800'
p1031
aS'15.5'
p1032
aa(lp1033
S'2012-06-26'
p1034
aS'15.40'
p1035
aS'15.47'
p1036
aS'15.19'
p1037
aS'15.35'
p1038
aS'13640400'
p1039
aS'15.3'
p1040
aa(lp1041
S'2012-06-25'
p1042
aS'15.51'
p1043
aS'15.55'
p1044
aS'15.31'
p1045
aS'15.44'
p1046
aS'13383100'
p1047
aS'15.4'
p1048
aa(lp1049
S'2012-06-22'
p1050
aS'15.53'
p1051
aS'15.70'
p1052
aS'15.52'
p1053
aS'15.61'
p1054
aS'11042700'
p1055
aS'15.6'
p1056
aa(lp1057
S'2012-06-21'
p1058
aS'15.74'
p1059
aS'15.80'
p1060
aS'15.47'
p1061
aS'15.52'
p1062
aS'13102700'
p1063
aS'15.5'
p1064
aa(lp1065
S'2012-06-20'
p1066
aS'15.69'
p1067
aS'15.75'
p1068
aS'15.58'
p1069
aS'15.74'
p1070
aS'11260700'
p1071
aS'15.7'
p1072
aa(lp1073
S'2012-06-19'
p1074
aS'15.52'
p1075
aS'15.69'
p1076
aS'15.51'
p1077
aS'15.65'
p1078
aS'10635800'
p1079
aS'15.6'
p1080
aa(lp1081
S'2012-06-18'
p1082
aS'15.33'
p1083
aS'15.54'
p1084
aS'15.27'
p1085
aS'15.49'
p1086
aS'9654000'
p1087
aS'15.4'
p1088
aa(lp1089
S'2012-06-15'
p1090
aS'15.44'
p1091
aS'15.44'
p1092
aS'15.33'
p1093
aS'15.36'
p1094
aS'11716500'
p1095
aS'15.3'
p1096
aa(lp1097
S'2012-06-14'
p1098
aS'15.30'
p1099
aS'15.46'
p1100
aS'15.25'
p1101
aS'15.36'
p1102
aS'11612700'
p1103
aS'15.3'
p1104
aa(lp1105
S'2012-06-13'
p1106
aS'15.47'
p1107
aS'15.49'
p1108
aS'15.27'
p1109
aS'15.34'
p1110
aS'16454100'
p1111
aS'15.3'
p1112
aa(lp1113
S'2012-06-12'
p1114
aS'15.35'
p1115
aS'15.52'
p1116
aS'15.26'
p1117
aS'15.47'
p1118
aS'17012500'
p1119
aS'15.4'
p1120
aa(lp1121
S'2012-06-11'
p1122
aS'15.73'
p1123
aS'15.73'
p1124
aS'15.27'
p1125
aS'15.30'
p1126
aS'17145100'
p1127
aS'15.3'
p1128
aa(lp1129
S'2012-06-08'
p1130
aS'15.52'
p1131
aS'15.68'
p1132
aS'15.40'
p1133
aS'15.65'
p1134
aS'16420600'
p1135
aS'15.6'
p1136
aa(lp1137
S'2012-06-07'
p1138
aS'15.47'
p1139
aS'15.50'
p1140
aS'15.33'
p1141
aS'15.36'
p1142
aS'12635700'
p1143
aS'15.3'
p1144
aa(lp1145
S'2012-06-06'
p1146
aS'15.14'
p1147
aS'15.41'
p1148
aS'15.14'
p1149
aS'15.36'
p1150
aS'18295500'
p1151
aS'15.3'
p1152
aa(lp1153
S'2012-06-05'
p1154
aS'15.00'
p1155
aS'15.14'
p1156
aS'14.91'
p1157
aS'15.10'
p1158
aS'9725400'
p1159
aS'15.1'
p1160
aa(lp1161
S'2012-06-04'
p1162
aS'14.90'
p1163
aS'15.03'
p1164
aS'14.81'
p1165
aS'15.01'
p1166
aS'15478000'
p1167
aS'15.0'
p1168
aa(lp1169
S'2012-06-01'
p1170
aS'15.04'
p1171
aS'15.12'
p1172
aS'14.85'
p1173
aS'14.92'
p1174
aS'16196700'
p1175
aS'14.9'
p1176
aa(lp1177
S'2012-05-31'
p1178
aS'15.23'
p1179
aS'15.37'
p1180
aS'15.12'
p1181
aS'15.24'
p1182
aS'17160000'
p1183
aS'15.2'
p1184
aa(lp1185
S'2012-05-30'
p1186
aS'15.30'
p1187
aS'15.34'
p1188
aS'15.16'
p1189
aS'15.25'
p1190
aS'14924600'
p1191
aS'15.2'
p1192
aa(lp1193
S'2012-05-29'
p1194
aS'15.40'
p1195
aS'15.55'
p1196
aS'15.28'
p1197
aS'15.47'
p1198
aS'18464900'
p1199
aS'15.4'
p1200
aa(lp1201
S'2012-05-25'
p1202
aS'15.40'
p1203
aS'15.48'
p1204
aS'15.28'
p1205
aS'15.36'
p1206
aS'13629000'
p1207
aS'15.3'
p1208
aa(lp1209
S'2012-05-24'
p1210
aS'15.34'
p1211
aS'15.51'
p1212
aS'15.22'
p1213
aS'15.35'
p1214
aS'13875600'
p1215
aS'15.3'
p1216
aa(lp1217
S'2012-05-23'
p1218
aS'15.19'
p1219
aS'15.43'
p1220
aS'15.14'
p1221
aS'15.38'
p1222
aS'18115300'
p1223
aS'15.3'
p1224
aa(lp1225
S'2012-05-22'
p1226
aS'15.58'
p1227
aS'15.61'
p1228
aS'15.19'
p1229
aS'15.29'
p1230
aS'33542000'
p1231
aS'15.2'
p1232
aa(lp1233
S'2012-05-21'
p1234
aS'16.00'
p1235
aS'16.00'
p1236
aS'15.10'
p1237
aS'15.58'
p1238
aS'51145800'
p1239
aS'15.5'
p1240
aa(lp1241
S'2012-05-18'
p1242
aS'15.78'
p1243
aS'15.87'
p1244
aS'15.36'
p1245
aS'15.42'
p1246
aS'32679400'
p1247
aS'15.4'
p1248
aa(lp1249
S'2012-05-17'
p1250
aS'15.26'
p1251
aS'15.37'
p1252
aS'14.85'
p1253
aS'14.87'
p1254
aS'17345100'
p1255
aS'14.8'
p1256
aa(lp1257
S'2012-05-16'
p1258
aS'15.40'
p1259
aS'15.57'
p1260
aS'15.26'
p1261
aS'15.28'
p1262
aS'17247400'
p1263
aS'15.2'
p1264
aa(lp1265
S'2012-05-15'
p1266
aS'15.47'
p1267
aS'15.55'
p1268
aS'15.34'
p1269
aS'15.40'
p1270
aS'13742500'
p1271
aS'15.4'
p1272
aa(lp1273
S'2012-05-14'
p1274
aS'15.48'
p1275
aS'15.77'
p1276
aS'15.40'
p1277
aS'15.50'
p1278
aS'30818600'
p1279
aS'15.5'
p1280
aa(lp1281
S'2012-05-11'
p1282
aS'14.88'
p1283
aS'15.44'
p1284
aS'14.80'
p1285
aS'15.19'
p1286
aS'21134300'
p1287
aS'15.1'
p1288
aa(lp1289
S'2012-05-10'
p1290
aS'15.40'
p1291
aS'15.54'
p1292
aS'15.30'
p1293
aS'15.44'
p1294
aS'11175700'
p1295
aS'15.4'
p1296
aa(lp1297
S'2012-05-09'
p1298
aS'15.17'
p1299
aS'15.45'
p1300
aS'15.03'
p1301
aS'15.30'
p1302
aS'19008500'
p1303
aS'15.3'
p1304
aa(lp1305
S'2012-05-08'
p1306
aS'15.31'
p1307
aS'15.44'
p1308
aS'15.09'
p1309
aS'15.36'
p1310
aS'18603600'
p1311
aS'15.3'
p1312
aa(lp1313
S'2012-05-07'
p1314
aS'15.34'
p1315
aS'15.49'
p1316
aS'15.16'
p1317
aS'15.35'
p1318
aS'13466000'
p1319
aS'15.3'
p1320
aa(lp1321
S'2012-05-04'
p1322
aS'15.25'
p1323
aS'15.29'
p1324
aS'15.09'
p1325
aS'15.15'
p1326
aS'13771300'
p1327
aS'15.1'
p1328
aa(lp1329
S'2012-05-03'
p1330
aS'15.65'
p1331
aS'15.65'
p1332
aS'15.33'
p1333
aS'15.40'
p1334
aS'10932700'
p1335
aS'15.4'
p1336
aa(lp1337
S'2012-05-02'
p1338
aS'15.58'
p1339
aS'15.77'
p1340
aS'15.54'
p1341
aS'15.67'
p1342
aS'10841000'
p1343
aS'15.6'
p1344
aa(lp1345
S'2012-05-01'
p1346
aS'15.51'
p1347
aS'15.73'
p1348
aS'15.50'
p1349
aS'15.63'
p1350
aS'9799300'
p1351
aS'15.6'
p1352
aa(lp1353
S'2012-04-30'
p1354
aS'15.55'
p1355
aS'15.57'
p1356
aS'15.45'
p1357
aS'15.54'
p1358
aS'10894600'
p1359
aS'15.5'
p1360
aa(lp1361
S'2012-04-27'
p1362
aS'15.51'
p1363
aS'15.62'
p1364
aS'15.49'
p1365
aS'15.57'
p1366
aS'9711600'
p1367
aS'15.5'
p1368
aa(lp1369
S'2012-04-26'
p1370
aS'15.44'
p1371
aS'15.55'
p1372
aS'15.38'
p1373
aS'15.53'
p1374
aS'12542800'
p1375
aS'15.5'
p1376
aa(lp1377
S'2012-04-25'
p1378
aS'15.43'
p1379
aS'15.51'
p1380
aS'15.38'
p1381
aS'15.50'
p1382
aS'13236900'
p1383
aS'15.5'
p1384
aa(lp1385
S'2012-04-24'
p1386
aS'15.33'
p1387
aS'15.52'
p1388
aS'15.33'
p1389
aS'15.43'
p1390
aS'12140200'
p1391
aS'15.4'
p1392
aa(lp1393
S'2012-04-23'
p1394
aS'15.41'
p1395
aS'15.47'
p1396
aS'15.29'
p1397
aS'15.33'
p1398
aS'21683700'
p1399
aS'15.3'
p1400
aa(lp1401
S'2012-04-20'
p1402
aS'15.41'
p1403
aS'15.70'
p1404
aS'15.39'
p1405
aS'15.60'
p1406
aS'24558400'
p1407
aS'15.6'
p1408
aa(lp1409
S'2012-04-19'
p1410
aS'15.44'
p1411
aS'15.57'
p1412
aS'15.36'
p1413
aS'15.40'
p1414
aS'18431200'
p1415
aS'15.4'
p1416
aa(lp1417
S'2012-04-18'
p1418
aS'15.40'
p1419
aS'15.57'
p1420
aS'15.30'
p1421
aS'15.49'
p1422
aS'36559000'
p1423
aS'15.4'
p1424
aa(lp1425
S'2012-04-17'
p1426
aS'14.82'
p1427
aS'15.18'
p1428
aS'14.82'
p1429
aS'15.01'
p1430
aS'20559000'
p1431
aS'15.0'
p1432
aa(lp1433
S'2012-04-16'
p1434
aS'15.00'
p1435
aS'15.04'
p1436
aS'14.73'
p1437
aS'14.79'
p1438
aS'13639200'
p1439
aS'14.7'
p1440
aa(lp1441
S'2012-04-13'
p1442
aS'14.99'
p1443
aS'15.18'
p1444
aS'14.86'
p1445
aS'14.87'
p1446
aS'15335800'
p1447
aS'14.8'
p1448
aa(lp1449
S'2012-04-12'
p1450
aS'14.90'
p1451
aS'15.10'
p1452
aS'14.84'
p1453
aS'15.06'
p1454
aS'9487500'
p1455
aS'15.0'
p1456
aa(lp1457
S'2012-04-11'
p1458
aS'15.08'
p1459
aS'15.08'
p1460
aS'14.84'
p1461
aS'14.88'
p1462
aS'11200900'
p1463
aS'14.8'
p1464
aa(lp1465
S'2012-04-10'
p1466
aS'15.08'
p1467
aS'15.18'
p1468
aS'14.91'
p1469
aS'14.99'
p1470
aS'15284200'
p1471
aS'14.9'
p1472
aa(lp1473
S'2012-04-09'
p1474
aS'15.00'
p1475
aS'15.25'
p1476
aS'14.96'
p1477
aS'15.10'
p1478
aS'11335400'
p1479
aS'15.1'
p1480
aa(lp1481
S'2012-04-05'
p1482
aS'15.14'
p1483
aS'15.26'
p1484
aS'15.00'
p1485
aS'15.07'
p1486
aS'11717000'
p1487
aS'15.0'
p1488
aa(lp1489
S'2012-04-04'
p1490
aS'15.15'
p1491
aS'15.34'
p1492
aS'15.00'
p1493
aS'15.27'
p1494
aS'20954600'
p1495
aS'15.2'
p1496
aa(lp1497
S'2012-04-03'
p1498
aS'15.36'
p1499
aS'15.43'
p1500
aS'15.06'
p1501
aS'15.18'
p1502
aS'18215000'
p1503
aS'15.1'
p1504
aa(lp1505
S'2012-04-02'
p1506
aS'15.19'
p1507
aS'15.51'
p1508
aS'15.11'
p1509
aS'15.46'
p1510
aS'14423800'
p1511
aS'15.4'
p1512
aa(lp1513
S'2012-03-30'
p1514
aS'15.37'
p1515
aS'15.42'
p1516
aS'15.18'
p1517
aS'15.22'
p1518
aS'15514100'
p1519
aS'15.2'
p1520
aa(lp1521
S'2012-03-29'
p1522
aS'15.19'
p1523
aS'15.34'
p1524
aS'15.11'
p1525
aS'15.30'
p1526
aS'9933800'
p1527
aS'15.3'
p1528
aa(lp1529
S'2012-03-28'
p1530
aS'15.45'
p1531
aS'15.48'
p1532
aS'15.14'
p1533
aS'15.32'
p1534
aS'18831800'
p1535
aS'15.3'
p1536
aa(lp1537
S'2012-03-27'
p1538
aS'15.53'
p1539
aS'15.55'
p1540
aS'15.41'
p1541
aS'15.43'
p1542
aS'11891000'
p1543
aS'15.4'
p1544
aa(lp1545
S'2012-03-26'
p1546
aS'15.46'
p1547
aS'15.56'
p1548
aS'15.36'
p1549
aS'15.54'
p1550
aS'11500800'
p1551
aS'15.5'
p1552
aa(lp1553
S'2012-03-23'
p1554
aS'15.52'
p1555
aS'15.59'
p1556
aS'15.31'
p1557
aS'15.39'
p1558
aS'8493700'
p1559
aS'15.3'
p1560
aa(lp1561
S'2012-03-22'
p1562
aS'15.51'
p1563
aS'15.56'
p1564
aS'15.38'
p1565
aS'15.49'
p1566
aS'14618600'
p1567
aS'15.4'
p1568
aa(lp1569
S'2012-03-21'
p1570
aS'15.42'
p1571
aS'15.61'
p1572
aS'15.17'
p1573
aS'15.51'
p1574
aS'25024100'
p1575
aS'15.5'
p1576
aa(lp1577
S'2012-03-20'
p1578
aS'15.00'
p1579
aS'15.61'
p1580
aS'14.92'
p1581
aS'15.41'
p1582
aS'22095600'
p1583
aS'15.4'
p1584
aa(lp1585
S'2012-03-19'
p1586
aS'15.08'
p1587
aS'15.22'
p1588
aS'14.92'
p1589
aS'15.15'
p1590
aS'16649600'
p1591
aS'15.1'
p1592
aa(lp1593
S'2012-03-16'
p1594
aS'14.95'
p1595
aS'15.18'
p1596
aS'14.92'
p1597
aS'15.18'
p1598
aS'28337600'
p1599
aS'15.1'
p1600
aa(lp1601
S'2012-03-15'
p1602
aS'14.64'
p1603
aS'14.98'
p1604
aS'14.57'
p1605
aS'14.89'
p1606
aS'19809800'
p1607
aS'14.8'
p1608
aa(lp1609
S'2012-03-14'
p1610
aS'14.54'
p1611
aS'14.64'
p1612
aS'14.42'
p1613
aS'14.63'
p1614
aS'14765500'
p1615
aS'14.6'
p1616
aa(lp1617
S'2012-03-13'
p1618
aS'14.54'
p1619
aS'14.62'
p1620
aS'14.39'
p1621
aS'14.55'
p1622
aS'17134400'
p1623
aS'14.5'
p1624
aa(lp1625
S'2012-03-12'
p1626
aS'14.66'
p1627
aS'14.76'
p1628
aS'14.48'
p1629
aS'14.49'
p1630
aS'11309200'
p1631
aS'14.4'
p1632
aa(lp1633
S'2012-03-09'
p1634
aS'14.63'
p1635
aS'14.70'
p1636
aS'14.61'
p1637
aS'14.63'
p1638
aS'9769900'
p1639
aS'14.6'
p1640
aa(lp1641
S'2012-03-08'
p1642
aS'14.70'
p1643
aS'14.77'
p1644
aS'14.52'
p1645
aS'14.62'
p1646
aS'11271400'
p1647
aS'14.6'
p1648
aa(lp1649
S'2012-03-07'
p1650
aS'14.48'
p1651
aS'14.71'
p1652
aS'14.44'
p1653
aS'14.62'
p1654
aS'10622500'
p1655
aS'14.6'
p1656
aa(lp1657
S'2012-03-06'
p1658
aS'14.61'
p1659
aS'14.69'
p1660
aS'14.35'
p1661
aS'14.42'
p1662
aS'12696600'
p1663
aS'14.4'
p1664
aa(lp1665
S'2012-03-05'
p1666
aS'14.66'
p1667
aS'14.95'
p1668
aS'14.52'
p1669
aS'14.62'
p1670
aS'11749700'
p1671
aS'14.6'
p1672
aa(lp1673
S'2012-03-02'
p1674
aS'14.89'
p1675
aS'14.92'
p1676
aS'14.66'
p1677
aS'14.72'
p1678
aS'9164900'
p1679
aS'14.7'
p1680
aa(lp1681
S'2012-03-01'
p1682
aS'14.89'
p1683
aS'14.96'
p1684
aS'14.79'
p1685
aS'14.93'
p1686
aS'12283300'
p1687
aS'14.9'
p1688
aa(lp1689
S'2012-02-29'
p1690
aS'14.89'
p1691
aS'14.93'
p1692
aS'14.78'
p1693
aS'14.83'
p1694
aS'19611100'
p1695
aS'14.8'
p1696
aa(lp1697
S'2012-02-28'
p1698
aS'14.93'
p1699
aS'14.99'
p1700
aS'14.76'
p1701
aS'14.90'
p1702
aS'15395600'
p1703
aS'14.9'
p1704
aa(lp1705
S'2012-02-27'
p1706
aS'14.74'
p1707
aS'14.91'
p1708
aS'14.72'
p1709
aS'14.86'
p1710
aS'13431000'
p1711
aS'14.8'
p1712
aa(lp1713
S'2012-02-24'
p1714
aS'14.86'
p1715
aS'14.97'
p1716
aS'14.83'
p1717
aS'14.89'
p1718
aS'12105400'
p1719
aS'14.8'
p1720
aa(lp1721
S'2012-02-23'
p1722
aS'14.55'
p1723
aS'14.81'
p1724
aS'14.37'
p1725
aS'14.78'
p1726
aS'15689700'
p1727
aS'14.7'
p1728
aa(lp1729
S'2012-02-22'
p1730
aS'14.68'
p1731
aS'14.75'
p1732
aS'14.43'
p1733
aS'14.50'
p1734
aS'27187200'
p1735
aS'14.5'
p1736
aa(lp1737
S'2012-02-21'
p1738
aS'15.04'
p1739
aS'15.07'
p1740
aS'14.75'
p1741
aS'14.75'
p1742
aS'29696600'
p1743
aS'14.7'
p1744
aa(lp1745
S'2012-02-17'
p1746
aS'15.41'
p1747
aS'15.44'
p1748
aS'15.00'
p1749
aS'15.01'
p1750
aS'22889500'
p1751
aS'15.0'
p1752
aa(lp1753
S'2012-02-16'
p1754
aS'15.25'
p1755
aS'15.38'
p1756
aS'15.10'
p1757
aS'15.36'
p1758
aS'15377400'
p1759
aS'15.3'
p1760
aa(lp1761
S'2012-02-15'
p1762
aS'15.23'
p1763
aS'15.30'
p1764
aS'15.08'
p1765
aS'15.12'
p1766
aS'25318400'
p1767
aS'15.1'
p1768
aa(lp1769
S'2012-02-14'
p1770
aS'16.07'
p1771
aS'16.10'
p1772
aS'14.92'
p1773
aS'15.37'
p1774
aS'88638700'
p1775
aS'15.3'
p1776
aa(lp1777
S'2012-02-13'
p1778
aS'16.13'
p1779
aS'16.24'
p1780
aS'16.05'
p1781
aS'16.12'
p1782
aS'10067300'
p1783
aS'16.1'
p1784
aa(lp1785
S'2012-02-10'
p1786
aS'16.02'
p1787
aS'16.31'
p1788
aS'16.00'
p1789
aS'16.14'
p1790
aS'27790100'
p1791
aS'16.1'
p1792
aa(lp1793
S'2012-02-09'
p1794
aS'16.10'
p1795
aS'16.10'
p1796
aS'15.90'
p1797
aS'16.00'
p1798
aS'22553000'
p1799
aS'16.0'
p1800
aa(lp1801
S'2012-02-08'
p1802
aS'15.96'
p1803
aS'15.97'
p1804
aS'15.72'
p1805
aS'15.78'
p1806
aS'13439400'
p1807
aS'15.7'
p1808
aa(lp1809
S'2012-02-07'
p1810
aS'15.84'
p1811
aS'15.89'
p1812
aS'15.74'
p1813
aS'15.83'
p1814
aS'13504500'
p1815
aS'15.8'
p1816
aa(lp1817
S'2012-02-06'
p1818
aS'15.94'
p1819
aS'15.95'
p1820
aS'15.76'
p1821
aS'15.82'
p1822
aS'11291100'
p1823
aS'15.8'
p1824
aa(lp1825
S'2012-02-03'
p1826
aS'15.94'
p1827
aS'15.98'
p1828
aS'15.83'
p1829
aS'15.92'
p1830
aS'13652100'
p1831
aS'15.9'
p1832
aa(lp1833
S'2012-02-02'
p1834
aS'15.76'
p1835
aS'15.82'
p1836
aS'15.69'
p1837
aS'15.72'
p1838
aS'9948800'
p1839
aS'15.7'
p1840
aa(lp1841
S'2012-02-01'
p1842
aS'15.57'
p1843
aS'15.80'
p1844
aS'15.53'
p1845
aS'15.73'
p1846
aS'13221000'
p1847
aS'15.7'
p1848
aa(lp1849
S'2012-01-31'
p1850
aS'15.54'
p1851
aS'15.62'
p1852
aS'15.41'
p1853
aS'15.47'
p1854
aS'10725500'
p1855
aS'15.4'
p1856
aa(lp1857
S'2012-01-30'
p1858
aS'15.61'
p1859
aS'15.65'
p1860
aS'15.50'
p1861
aS'15.55'
p1862
aS'11076900'
p1863
aS'15.5'
p1864
aa(lp1865
S'2012-01-27'
p1866
aS'15.50'
p1867
aS'15.80'
p1868
aS'15.46'
p1869
aS'15.74'
p1870
aS'10859000'
p1871
aS'15.7'
p1872
aa(lp1873
S'2012-01-26'
p1874
aS'15.63'
p1875
aS'15.69'
p1876
aS'15.42'
p1877
aS'15.53'
p1878
aS'15408400'
p1879
aS'15.5'
p1880
aa(lp1881
S'2012-01-25'
p1882
aS'15.60'
p1883
aS'15.71'
p1884
aS'15.46'
p1885
aS'15.56'
p1886
aS'23349500'
p1887
aS'15.5'
p1888
aa(lp1889
S'2012-01-24'
p1890
aS'15.57'
p1891
aS'15.81'
p1892
aS'15.55'
p1893
aS'15.69'
p1894
aS'17152200'
p1895
aS'15.6'
p1896
aa(lp1897
S'2012-01-23'
p1898
aS'15.85'
p1899
aS'15.93'
p1900
aS'15.64'
p1901
aS'15.68'
p1902
aS'17864500'
p1903
aS'15.6'
p1904
aa(lp1905
S'2012-01-20'
p1906
aS'16.11'
p1907
aS'16.11'
p1908
aS'15.85'
p1909
aS'15.96'
p1910
aS'22003800'
p1911
aS'15.9'
p1912
aa(lp1913
S'2012-01-19'
p1914
aS'15.90'
p1915
aS'16.15'
p1916
aS'15.89'
p1917
aS'16.12'
p1918
aS'22645000'
p1919
aS'16.1'
p1920
aa(lp1921
S'2012-01-18'
p1922
aS'15.87'
p1923
aS'16.00'
p1924
aS'15.69'
p1925
aS'15.92'
p1926
aS'35695800'
p1927
aS'15.9'
p1928
aa(lp1929
S'2012-01-17'
p1930
aS'15.63'
p1931
aS'15.66'
p1932
aS'15.39'
p1933
aS'15.43'
p1934
aS'15334200'
p1935
aS'15.4'
p1936
aa(lp1937
S'2012-01-13'
p1938
aS'15.65'
p1939
aS'15.67'
p1940
aS'15.43'
p1941
aS'15.48'
p1942
aS'11704700'
p1943
aS'15.4'
p1944
aa(lp1945
S'2012-01-12'
p1946
aS'15.58'
p1947
aS'15.73'
p1948
aS'15.45'
p1949
aS'15.66'
p1950
aS'12664600'
p1951
aS'15.6'
p1952
aa(lp1953
S'2012-01-11'
p1954
aS'15.56'
p1955
aS'15.62'
p1956
aS'15.35'
p1957
aS'15.53'
p1958
aS'10800800'
p1959
aS'15.5'
p1960
aa(lp1961
S'2012-01-10'
p1962
aS'15.57'
p1963
aS'15.71'
p1964
aS'15.50'
p1965
aS'15.51'
p1966
aS'14048800'
p1967
aS'15.5'
p1968
aa(lp1969
S'2012-01-09'
p1970
aS'15.59'
p1971
aS'15.61'
p1972
aS'15.35'
p1973
aS'15.46'
p1974
aS'13191900'
p1975
aS'15.4'
p1976
aa(lp1977
S'2012-01-06'
p1978
aS'15.64'
p1979
aS'15.66'
p1980
aS'15.40'
p1981
aS'15.52'
p1982
aS'13308400'
p1983
aS'15.5'
p1984
aa(lp1985
S'2012-01-05'
p1986
aS'15.60'
p1987
aS'15.69'
p1988
aS'15.44'
p1989
aS'15.64'
p1990
aS'19422800'
p1991
aS'15.6'
p1992
aa(lp1993
S'2012-01-04'
p1994
aS'16.12'
p1995
aS'16.16'
p1996
aS'15.74'
p1997
aS'15.78'
p1998
aS'35655300'
p1999
aS'15.7'
p2000
aa(lp2001
S'2012-01-03'
p2002
aS'16.27'
p2003
aS'16.39'
p2004
aS'16.20'
p2005
aS'16.29'
p2006
aS'19708600'
p2007
aS'16.2'
p2008
aa.